
EXAMEN_11.exe:	file format COFF-i386

Disassembly of section .text:
.text:
10101000:	55 	pushl	%ebp
10101001:	8b ec 	movl	%esp, %ebp
10101003:	5d 	popl	%ebp
10101004:	c3 	retl
10101005:	cc 	int3
10101006:	cc 	int3
10101007:	cc 	int3
10101008:	cc 	int3
10101009:	cc 	int3
1010100a:	cc 	int3
1010100b:	cc 	int3
1010100c:	cc 	int3
1010100d:	cc 	int3
1010100e:	cc 	int3
1010100f:	cc 	int3
10101010:	55 	pushl	%ebp
10101011:	8b ec 	movl	%esp, %ebp
10101013:	81 ec 30 03 00 00 	subl	$816, %esp
10101019:	a1 04 40 10 10 	movl	269500420, %eax
1010101e:	33 c5 	xorl	%ebp, %eax
10101020:	89 45 fc 	movl	%eax, -4(%ebp)
10101023:	c7 85 d0 fc ff ff 01 00 00 00 	movl	$1, -816(%ebp)
1010102d:	68 20 03 00 00 	pushl	$800
10101032:	6a 00 	pushl	$0
10101034:	8d 85 dc fc ff ff 	leal	-804(%ebp), %eax
1010103a:	50 	pushl	%eax
1010103b:	e8 2a 10 00 00 	calll	4138 <.text+106A>
10101040:	83 c4 0c 	addl	$12, %esp
10101043:	c7 85 d8 fc ff ff 00 00 00 00 	movl	$0, -808(%ebp)
1010104d:	eb 0f 	jmp	15 <.text+5E>
1010104f:	8b 8d d8 fc ff ff 	movl	-808(%ebp), %ecx
10101055:	83 c1 01 	addl	$1, %ecx
10101058:	89 8d d8 fc ff ff 	movl	%ecx, -808(%ebp)
1010105e:	8b 95 d8 fc ff ff 	movl	-808(%ebp), %edx
10101064:	3b 55 08 	cmpl	8(%ebp), %edx
10101067:	0f 8d e8 00 00 00 	jge	232 <.text+155>
1010106d:	68 e0 00 00 00 	pushl	$224
10101072:	e8 59 03 00 00 	calll	857 <.text+3D0>
10101077:	83 c4 04 	addl	$4, %esp
1010107a:	89 85 d4 fc ff ff 	movl	%eax, -812(%ebp)
10101080:	8b 85 d8 fc ff ff 	movl	-808(%ebp), %eax
10101086:	8b 8d d4 fc ff ff 	movl	-812(%ebp), %ecx
1010108c:	89 8c 85 dc fc ff ff 	movl	%ecx, -804(%ebp,%eax,4)
10101093:	8b 95 d8 fc ff ff 	movl	-808(%ebp), %edx
10101099:	8b 84 95 dc fc ff ff 	movl	-804(%ebp,%edx,4), %eax
101010a0:	c7 80 d8 00 00 00 10 10 10 10 	movl	$269488144, 216(%eax)
101010aa:	8b 8d d8 fc ff ff 	movl	-808(%ebp), %ecx
101010b0:	8b 94 8d dc fc ff ff 	movl	-804(%ebp,%ecx,4), %edx
101010b7:	a1 80 30 10 10 	movl	269496448, %eax
101010bc:	89 82 dc 00 00 00 	movl	%eax, 220(%edx)
101010c2:	8b 8d d8 fc ff ff 	movl	-808(%ebp), %ecx
101010c8:	8b 55 0c 	movl	12(%ebp), %edx
101010cb:	8b 04 8a 	movl	(%edx,%ecx,4), %eax
101010ce:	50 	pushl	%eax
101010cf:	8b 8d d8 fc ff ff 	movl	-808(%ebp), %ecx
101010d5:	8b 94 8d dc fc ff ff 	movl	-804(%ebp,%ecx,4), %edx
101010dc:	52 	pushl	%edx
101010dd:	e8 a6 0f 00 00 	calll	4006 <.text+1088>
101010e2:	83 c4 08 	addl	$8, %esp
101010e5:	8b 85 d8 fc ff ff 	movl	-808(%ebp), %eax
101010eb:	8b 8c 85 dc fc ff ff 	movl	-804(%ebp,%eax,4), %ecx
101010f2:	c7 81 dc 00 00 00 90 13 10 10 	movl	$269489040, 220(%ecx)
101010fc:	8b 95 d8 fc ff ff 	movl	-808(%ebp), %edx
10101102:	8b 45 0c 	movl	12(%ebp), %eax
10101105:	8b 0c 90 	movl	(%eax,%edx,4), %ecx
10101108:	51 	pushl	%ecx
10101109:	8b 95 d8 fc ff ff 	movl	-808(%ebp), %edx
1010110f:	8b 84 95 dc fc ff ff 	movl	-804(%ebp,%edx,4), %eax
10101116:	05 c8 00 00 00 	addl	$200, %eax
1010111b:	50 	pushl	%eax
1010111c:	e8 67 0f 00 00 	calll	3943 <.text+1088>
10101121:	83 c4 08 	addl	$8, %esp
10101124:	8b 8d d8 fc ff ff 	movl	-808(%ebp), %ecx
1010112a:	8b 94 8d dc fc ff ff 	movl	-804(%ebp,%ecx,4), %edx
10101131:	81 c2 c8 00 00 00 	addl	$200, %edx
10101137:	52 	pushl	%edx
10101138:	8b 85 d8 fc ff ff 	movl	-808(%ebp), %eax
1010113e:	8b 8c 85 dc fc ff ff 	movl	-804(%ebp,%eax,4), %ecx
10101145:	8b 91 dc 00 00 00 	movl	220(%ecx), %edx
1010114b:	ff d2 	calll	*%edx
1010114d:	83 c4 04 	addl	$4, %esp
10101150:	e9 fa fe ff ff 	jmp	-262 <.text+4F>
10101155:	83 bd d0 fc ff ff 00 	cmpl	$0, -816(%ebp)
1010115c:	75 0f 	jne	15 <.text+16D>
1010115e:	68 20 31 10 10 	pushl	$269496608
10101163:	e8 28 02 00 00 	calll	552 <.text+390>
10101168:	83 c4 04 	addl	$4, %esp
1010116b:	eb 0d 	jmp	13 <.text+17A>
1010116d:	68 38 31 10 10 	pushl	$269496632
10101172:	e8 19 02 00 00 	calll	537 <.text+390>
10101177:	83 c4 04 	addl	$4, %esp
1010117a:	8b 4d fc 	movl	-4(%ebp), %ecx
1010117d:	33 cd 	xorl	%ebp, %ecx
1010117f:	e8 7f 02 00 00 	calll	639 <.text+403>
10101184:	8b e5 	movl	%ebp, %esp
10101186:	5d 	popl	%ebp
10101187:	c3 	retl
10101188:	cc 	int3
10101189:	cc 	int3
1010118a:	cc 	int3
1010118b:	cc 	int3
1010118c:	cc 	int3
1010118d:	cc 	int3
1010118e:	cc 	int3
1010118f:	cc 	int3
10101190:	55 	pushl	%ebp
10101191:	8b ec 	movl	%esp, %ebp
10101193:	b8 90 40 10 10 	movl	$269500560, %eax
10101198:	5d 	popl	%ebp
10101199:	c3 	retl
1010119a:	cc 	int3
1010119b:	cc 	int3
1010119c:	cc 	int3
1010119d:	cc 	int3
1010119e:	cc 	int3
1010119f:	cc 	int3
101011a0:	55 	pushl	%ebp
101011a1:	8b ec 	movl	%esp, %ebp
101011a3:	8b 45 14 	movl	20(%ebp), %eax
101011a6:	50 	pushl	%eax
101011a7:	8b 4d 10 	movl	16(%ebp), %ecx
101011aa:	51 	pushl	%ecx
101011ab:	8b 55 0c 	movl	12(%ebp), %edx
101011ae:	52 	pushl	%edx
101011af:	8b 45 08 	movl	8(%ebp), %eax
101011b2:	50 	pushl	%eax
101011b3:	e8 d8 ff ff ff 	calll	-40 <.text+190>
101011b8:	8b 48 04 	movl	4(%eax), %ecx
101011bb:	51 	pushl	%ecx
101011bc:	8b 10 	movl	(%eax), %edx
101011be:	52 	pushl	%edx
101011bf:	ff 15 d4 30 10 10 	calll	*269496532
101011c5:	83 c4 18 	addl	$24, %esp
101011c8:	5d 	popl	%ebp
101011c9:	c3 	retl
101011ca:	cc 	int3
101011cb:	cc 	int3
101011cc:	cc 	int3
101011cd:	cc 	int3
101011ce:	cc 	int3
101011cf:	cc 	int3
101011d0:	55 	pushl	%ebp
101011d1:	8b ec 	movl	%esp, %ebp
101011d3:	81 ec fc 03 00 00 	subl	$1020, %esp
101011d9:	a1 04 40 10 10 	movl	269500420, %eax
101011de:	33 c5 	xorl	%ebp, %eax
101011e0:	89 45 fc 	movl	%eax, -4(%ebp)
101011e3:	c7 85 0c fc ff ff 00 00 00 00 	movl	$0, -1012(%ebp)
101011ed:	68 4c 31 10 10 	pushl	$269496652
101011f2:	68 50 31 10 10 	pushl	$269496656
101011f7:	ff 15 cc 30 10 10 	calll	*269496524
101011fd:	83 c4 08 	addl	$8, %esp
10101200:	89 85 08 fc ff ff 	movl	%eax, -1016(%ebp)
10101206:	68 c8 00 00 00 	pushl	$200
1010120b:	6a 00 	pushl	$0
1010120d:	8d 85 34 ff ff ff 	leal	-204(%ebp), %eax
10101213:	50 	pushl	%eax
10101214:	e8 51 0e 00 00 	calll	3665 <.text+106A>
10101219:	83 c4 0c 	addl	$12, %esp
1010121c:	83 bd 08 fc ff ff 00 	cmpl	$0, -1016(%ebp)
10101223:	75 15 	jne	21 <.text+23A>
10101225:	68 60 31 10 10 	pushl	$269496672
1010122a:	e8 61 01 00 00 	calll	353 <.text+390>
1010122f:	83 c4 04 	addl	$4, %esp
10101232:	6a 01 	pushl	$1
10101234:	ff 15 9c 30 10 10 	calll	*269496476
1010123a:	8b 8d 08 fc ff ff 	movl	-1016(%ebp), %ecx
10101240:	51 	pushl	%ecx
10101241:	6a 01 	pushl	$1
10101243:	68 c8 00 00 00 	pushl	$200
10101248:	8d 95 34 ff ff ff 	leal	-204(%ebp), %edx
1010124e:	52 	pushl	%edx
1010124f:	ff 15 d8 30 10 10 	calll	*269496536
10101255:	83 c4 10 	addl	$16, %esp
10101258:	68 90 31 10 10 	pushl	$269496720
1010125d:	8d 85 34 ff ff ff 	leal	-204(%ebp), %eax
10101263:	50 	pushl	%eax
10101264:	ff 15 e4 30 10 10 	calll	*269496548
1010126a:	83 c4 08 	addl	$8, %esp
1010126d:	b9 04 00 00 00 	movl	$4, %ecx
10101272:	6b d1 00 	imull	$0, %ecx, %edx
10101275:	89 84 15 14 fc ff ff 	movl	%eax, -1004(%ebp,%edx)
1010127c:	b8 04 00 00 00 	movl	$4, %eax
10101281:	6b c8 00 	imull	$0, %eax, %ecx
10101284:	83 bc 0d 14 fc ff ff 00 	cmpl	$0, -1004(%ebp,%ecx)
1010128c:	75 08 	jne	8 <.text+296>
1010128e:	6a 01 	pushl	$1
10101290:	ff 15 9c 30 10 10 	calll	*269496476
10101296:	ba 04 00 00 00 	movl	$4, %edx
1010129b:	6b c2 00 	imull	$0, %edx, %eax
1010129e:	8b 8c 05 14 fc ff ff 	movl	-1004(%ebp,%eax), %ecx
101012a5:	51 	pushl	%ecx
101012a6:	68 94 31 10 10 	pushl	$269496724
101012ab:	e8 e0 00 00 00 	calll	224 <.text+390>
101012b0:	83 c4 08 	addl	$8, %esp
101012b3:	8b 95 0c fc ff ff 	movl	-1012(%ebp), %edx
101012b9:	83 c2 01 	addl	$1, %edx
101012bc:	89 95 0c fc ff ff 	movl	%edx, -1012(%ebp)
101012c2:	c7 85 10 fc ff ff 01 00 00 00 	movl	$1, -1008(%ebp)
101012cc:	eb 0f 	jmp	15 <.text+2DD>
101012ce:	8b 85 10 fc ff ff 	movl	-1008(%ebp), %eax
101012d4:	83 c0 01 	addl	$1, %eax
101012d7:	89 85 10 fc ff ff 	movl	%eax, -1008(%ebp)
101012dd:	81 bd 10 fc ff ff c8 00 00 00 	cmpl	$200, -1008(%ebp)
101012e7:	7d 5b 	jge	91 <.text+344>
101012e9:	68 a4 31 10 10 	pushl	$269496740
101012ee:	6a 00 	pushl	$0
101012f0:	ff 15 e4 30 10 10 	calll	*269496548
101012f6:	83 c4 08 	addl	$8, %esp
101012f9:	8b 8d 10 fc ff ff 	movl	-1008(%ebp), %ecx
101012ff:	89 84 8d 14 fc ff ff 	movl	%eax, -1004(%ebp,%ecx,4)
10101306:	8b 95 10 fc ff ff 	movl	-1008(%ebp), %edx
1010130c:	83 bc 95 14 fc ff ff 00 	cmpl	$0, -1004(%ebp,%edx,4)
10101314:	75 02 	jne	2 <.text+318>
10101316:	eb 2c 	jmp	44 <.text+344>
10101318:	8b 85 10 fc ff ff 	movl	-1008(%ebp), %eax
1010131e:	8b 8c 85 14 fc ff ff 	movl	-1004(%ebp,%eax,4), %ecx
10101325:	51 	pushl	%ecx
10101326:	68 a8 31 10 10 	pushl	$269496744
1010132b:	e8 60 00 00 00 	calll	96 <.text+390>
10101330:	83 c4 08 	addl	$8, %esp
10101333:	8b 95 0c fc ff ff 	movl	-1012(%ebp), %edx
10101339:	83 c2 01 	addl	$1, %edx
1010133c:	89 95 0c fc ff ff 	movl	%edx, -1012(%ebp)
10101342:	eb 8a 	jmp	-118 <.text+2CE>
10101344:	c7 85 04 fc ff ff 10 10 10 10 	movl	$269488144, -1020(%ebp)
1010134e:	8b 85 0c fc ff ff 	movl	-1012(%ebp), %eax
10101354:	50 	pushl	%eax
10101355:	68 b8 31 10 10 	pushl	$269496760
1010135a:	e8 31 00 00 00 	calll	49 <.text+390>
1010135f:	83 c4 08 	addl	$8, %esp
10101362:	8d 8d 14 fc ff ff 	leal	-1004(%ebp), %ecx
10101368:	51 	pushl	%ecx
10101369:	8b 95 0c fc ff ff 	movl	-1012(%ebp), %edx
1010136f:	52 	pushl	%edx
10101370:	ff 95 04 fc ff ff 	calll	*-1020(%ebp)
10101376:	83 c4 08 	addl	$8, %esp
10101379:	33 c0 	xorl	%eax, %eax
1010137b:	8b 4d fc 	movl	-4(%ebp), %ecx
1010137e:	33 cd 	xorl	%ebp, %ecx
10101380:	e8 7e 00 00 00 	calll	126 <.text+403>
10101385:	8b e5 	movl	%ebp, %esp
10101387:	5d 	popl	%ebp
10101388:	c3 	retl
10101389:	cc 	int3
1010138a:	cc 	int3
1010138b:	cc 	int3
1010138c:	cc 	int3
1010138d:	cc 	int3
1010138e:	cc 	int3
1010138f:	cc 	int3
10101390:	55 	pushl	%ebp
10101391:	8b ec 	movl	%esp, %ebp
10101393:	83 ec 08 	subl	$8, %esp
10101396:	e8 65 fc ff ff 	calll	-923 <.text>
1010139b:	8d 45 0c 	leal	12(%ebp), %eax
1010139e:	89 45 fc 	movl	%eax, -4(%ebp)
101013a1:	8b 4d fc 	movl	-4(%ebp), %ecx
101013a4:	51 	pushl	%ecx
101013a5:	6a 00 	pushl	$0
101013a7:	8b 55 08 	movl	8(%ebp), %edx
101013aa:	52 	pushl	%edx
101013ab:	6a 01 	pushl	$1
101013ad:	ff 15 d0 30 10 10 	calll	*269496528
101013b3:	83 c4 04 	addl	$4, %esp
101013b6:	50 	pushl	%eax
101013b7:	e8 e4 fd ff ff 	calll	-540 <.text+1A0>
101013bc:	83 c4 10 	addl	$16, %esp
101013bf:	89 45 f8 	movl	%eax, -8(%ebp)
101013c2:	c7 45 fc 00 00 00 00 	movl	$0, -4(%ebp)
101013c9:	8b 45 f8 	movl	-8(%ebp), %eax
101013cc:	8b e5 	movl	%ebp, %esp
101013ce:	5d 	popl	%ebp
101013cf:	c3 	retl
101013d0:	55 	pushl	%ebp
101013d1:	8b ec 	movl	%esp, %ebp
101013d3:	eb 1f 	jmp	31 <.text+3F4>
101013d5:	ff 75 08 	pushl	8(%ebp)
101013d8:	e8 b7 0c 00 00 	calll	3255 <.text+1094>
101013dd:	59 	popl	%ecx
101013de:	85 c0 	testl	%eax, %eax
101013e0:	75 12 	jne	18 <.text+3F4>
101013e2:	83 7d 08 ff 	cmpl	$-1, 8(%ebp)
101013e6:	75 07 	jne	7 <.text+3EF>
101013e8:	e8 4b 03 00 00 	calll	843 <.text+738>
101013ed:	eb 05 	jmp	5 <.text+3F4>
101013ef:	e8 27 03 00 00 	calll	807 <.text+71B>
101013f4:	ff 75 08 	pushl	8(%ebp)
101013f7:	e8 9e 0c 00 00 	calll	3230 <.text+109A>
101013fc:	59 	popl	%ecx
101013fd:	85 c0 	testl	%eax, %eax
101013ff:	74 d4 	je	-44 <.text+3D5>
10101401:	5d 	popl	%ebp
10101402:	c3 	retl
10101403:	3b 0d 04 40 10 10 	cmpl	269500420, %ecx
10101409:	f2 	repne
1010140a:	75 02 	jne	2 <.text+40E>
1010140c:	f2 	repne
1010140d:	c3 	retl
1010140e:	f2 	repne
1010140f:	e9 76 03 00 00 	jmp	886 <.text+78A>
10101414:	56 	pushl	%esi
10101415:	6a 01 	pushl	$1
10101417:	e8 8a 0c 00 00 	calll	3210 <.text+10A6>
1010141c:	e8 6f 07 00 00 	calll	1903 <.text+B90>
10101421:	50 	pushl	%eax
10101422:	e8 af 0c 00 00 	calll	3247 <.text+10D6>
10101427:	e8 da 0c 00 00 	calll	3290 <.text+1106>
1010142c:	8b f0 	movl	%eax, %esi
1010142e:	e8 56 07 00 00 	calll	1878 <.text+B89>
10101433:	6a 01 	pushl	$1
10101435:	89 06 	movl	%eax, (%esi)
10101437:	e8 fb 04 00 00 	calll	1275 <.text+937>
1010143c:	83 c4 0c 	addl	$12, %esp
1010143f:	5e 	popl	%esi
10101440:	84 c0 	testb	%al, %al
10101442:	74 6c 	je	108 <.text+4B0>
10101444:	db e2 	fnclex
10101446:	e8 60 09 00 00 	calll	2400 <.text+DAB>
1010144b:	68 d6 1d 10 10 	pushl	$269491670
10101450:	e8 83 06 00 00 	calll	1667 <.text+AD8>
10101455:	e8 32 07 00 00 	calll	1842 <.text+B8C>
1010145a:	50 	pushl	%eax
1010145b:	e8 52 0c 00 00 	calll	3154 <.text+10B2>
10101460:	59 	popl	%ecx
10101461:	59 	popl	%ecx
10101462:	85 c0 	testl	%eax, %eax
10101464:	75 4a 	jne	74 <.text+4B0>
10101466:	e8 2b 07 00 00 	calll	1835 <.text+B96>
1010146b:	e8 77 07 00 00 	calll	1911 <.text+BE7>
10101470:	85 c0 	testl	%eax, %eax
10101472:	74 0b 	je	11 <.text+47F>
10101474:	68 89 1b 10 10 	pushl	$269491081
10101479:	e8 2e 0c 00 00 	calll	3118 <.text+10AC>
1010147e:	59 	popl	%ecx
1010147f:	e8 3f 07 00 00 	calll	1855 <.text+BC3>
10101484:	e8 3a 07 00 00 	calll	1850 <.text+BC3>
10101489:	e8 14 07 00 00 	calll	1812 <.text+BA2>
1010148e:	e8 f6 06 00 00 	calll	1782 <.text+B89>
10101493:	50 	pushl	%eax
10101494:	e8 61 0c 00 00 	calll	3169 <.text+10FA>
10101499:	59 	popl	%ecx
1010149a:	e8 97 0c 00 00 	calll	3223 <.text+1136>
1010149f:	84 c0 	testb	%al, %al
101014a1:	74 05 	je	5 <.text+4A8>
101014a3:	e8 10 0c 00 00 	calll	3088 <.text+10B8>
101014a8:	e8 dc 06 00 00 	calll	1756 <.text+B89>
101014ad:	33 c0 	xorl	%eax, %eax
101014af:	c3 	retl
101014b0:	6a 07 	pushl	$7
101014b2:	e8 48 07 00 00 	calll	1864 <.text+BFF>
101014b7:	cc 	int3
101014b8:	e8 0d 07 00 00 	calll	1805 <.text+BCA>
101014bd:	33 c0 	xorl	%eax, %eax
101014bf:	c3 	retl
101014c0:	e8 99 08 00 00 	calll	2201 <.text+D5E>
101014c5:	e8 bf 06 00 00 	calll	1727 <.text+B89>
101014ca:	50 	pushl	%eax
101014cb:	e8 30 0c 00 00 	calll	3120 <.text+1100>
101014d0:	59 	popl	%ecx
101014d1:	c3 	retl
101014d2:	6a 14 	pushl	$20
101014d4:	68 58 37 10 10 	pushl	$269498200
101014d9:	e8 32 09 00 00 	calll	2354 <.text+E10>
101014de:	6a 01 	pushl	$1
101014e0:	e8 19 04 00 00 	calll	1049 <.text+8FE>
101014e5:	59 	popl	%ecx
101014e6:	84 c0 	testb	%al, %al
101014e8:	75 07 	jne	7 <.text+4F1>
101014ea:	6a 07 	pushl	$7
101014ec:	e8 0e 07 00 00 	calll	1806 <.text+BFF>
101014f1:	32 db 	xorb	%bl, %bl
101014f3:	88 5d e7 	movb	%bl, -25(%ebp)
101014f6:	83 65 fc 00 	andl	$0, -4(%ebp)
101014fa:	e8 ca 03 00 00 	calll	970 <.text+8C9>
101014ff:	88 45 dc 	movb	%al, -36(%ebp)
10101502:	a1 b4 43 10 10 	movl	269501364, %eax
10101507:	33 c9 	xorl	%ecx, %ecx
10101509:	41 	incl	%ecx
1010150a:	3b c1 	cmpl	%ecx, %eax
1010150c:	74 dc 	je	-36 <.text+4EA>
1010150e:	85 c0 	testl	%eax, %eax
10101510:	75 49 	jne	73 <.text+55B>
10101512:	89 0d b4 43 10 10 	movl	%ecx, 269501364
10101518:	68 08 31 10 10 	pushl	$269496584
1010151d:	68 fc 30 10 10 	pushl	$269496572
10101522:	e8 a3 0b 00 00 	calll	2979 <.text+10CA>
10101527:	59 	popl	%ecx
10101528:	59 	popl	%ecx
10101529:	85 c0 	testl	%eax, %eax
1010152b:	74 11 	je	17 <.text+53E>
1010152d:	c7 45 fc fe ff ff ff 	movl	$4294967294, -4(%ebp)
10101534:	b8 ff 00 00 00 	movl	$255, %eax
10101539:	e9 fd 00 00 00 	jmp	253 <.text+63B>
1010153e:	68 f8 30 10 10 	pushl	$269496568
10101543:	68 f0 30 10 10 	pushl	$269496560
10101548:	e8 77 0b 00 00 	calll	2935 <.text+10C4>
1010154d:	59 	popl	%ecx
1010154e:	59 	popl	%ecx
1010154f:	c7 05 b4 43 10 10 02 00 00 00 	movl	$2, 269501364
10101559:	eb 05 	jmp	5 <.text+560>
1010155b:	8a d9 	movb	%cl, %bl
1010155d:	88 5d e7 	movb	%bl, -25(%ebp)
10101560:	ff 75 dc 	pushl	-36(%ebp)
10101563:	e8 f0 04 00 00 	calll	1264 <.text+A58>
10101568:	59 	popl	%ecx
10101569:	e8 85 06 00 00 	calll	1669 <.text+BF3>
1010156e:	8b f0 	movl	%eax, %esi
10101570:	33 ff 	xorl	%edi, %edi
10101572:	39 3e 	cmpl	%edi, (%esi)
10101574:	74 1a 	je	26 <.text+590>
10101576:	56 	pushl	%esi
10101577:	e8 52 04 00 00 	calll	1106 <.text+9CE>
1010157c:	59 	popl	%ecx
1010157d:	84 c0 	testb	%al, %al
1010157f:	74 0f 	je	15 <.text+590>
10101581:	57 	pushl	%edi
10101582:	6a 02 	pushl	$2
10101584:	57 	pushl	%edi
10101585:	8b 36 	movl	(%esi), %esi
10101587:	8b ce 	movl	%esi, %ecx
10101589:	e8 73 08 00 00 	calll	2163 <.text+E01>
1010158e:	ff d6 	calll	*%esi
10101590:	e8 64 06 00 00 	calll	1636 <.text+BF9>
10101595:	8b f0 	movl	%eax, %esi
10101597:	39 3e 	cmpl	%edi, (%esi)
10101599:	74 13 	je	19 <.text+5AE>
1010159b:	56 	pushl	%esi
1010159c:	e8 2d 04 00 00 	calll	1069 <.text+9CE>
101015a1:	59 	popl	%ecx
101015a2:	84 c0 	testb	%al, %al
101015a4:	74 08 	je	8 <.text+5AE>
101015a6:	ff 36 	pushl	(%esi)
101015a8:	e8 47 0b 00 00 	calll	2887 <.text+10F4>
101015ad:	59 	popl	%ecx
101015ae:	e8 2f 0b 00 00 	calll	2863 <.text+10E2>
101015b3:	8b f8 	movl	%eax, %edi
101015b5:	e8 22 0b 00 00 	calll	2850 <.text+10DC>
101015ba:	8b f0 	movl	%eax, %esi
101015bc:	e8 fd 0a 00 00 	calll	2813 <.text+10BE>
101015c1:	50 	pushl	%eax
101015c2:	ff 37 	pushl	(%edi)
101015c4:	ff 36 	pushl	(%esi)
101015c6:	e8 05 fc ff ff 	calll	-1019 <.text+1D0>
101015cb:	83 c4 0c 	addl	$12, %esp
101015ce:	8b f0 	movl	%eax, %esi
101015d0:	e8 45 07 00 00 	calll	1861 <.text+D1A>
101015d5:	84 c0 	testb	%al, %al
101015d7:	75 06 	jne	6 <.text+5DF>
101015d9:	56 	pushl	%esi
101015da:	e8 af 0a 00 00 	calll	2735 <.text+108E>
101015df:	84 db 	testb	%bl, %bl
101015e1:	75 05 	jne	5 <.text+5E8>
101015e3:	e8 00 0b 00 00 	calll	2816 <.text+10E8>
101015e8:	6a 00 	pushl	$0
101015ea:	6a 01 	pushl	$1
101015ec:	e8 84 04 00 00 	calll	1156 <.text+A75>
101015f1:	59 	popl	%ecx
101015f2:	59 	popl	%ecx
101015f3:	c7 45 fc fe ff ff ff 	movl	$4294967294, -4(%ebp)
101015fa:	8b c6 	movl	%esi, %eax
101015fc:	eb 3d 	jmp	61 <.text+63B>
101015fe:	8b 4d ec 	movl	-20(%ebp), %ecx
10101601:	8b 01 	movl	(%ecx), %eax
10101603:	8b 00 	movl	(%eax), %eax
10101605:	89 45 e0 	movl	%eax, -32(%ebp)
10101608:	51 	pushl	%ecx
10101609:	50 	pushl	%eax
1010160a:	e8 91 0a 00 00 	calll	2705 <.text+10A0>
1010160f:	59 	popl	%ecx
10101610:	59 	popl	%ecx
10101611:	c3 	retl
10101612:	8b 65 e8 	movl	-24(%ebp), %esp
10101615:	e8 00 07 00 00 	calll	1792 <.text+D1A>
1010161a:	84 c0 	testb	%al, %al
1010161c:	75 08 	jne	8 <.text+626>
1010161e:	ff 75 e0 	pushl	-32(%ebp)
10101621:	e8 aa 0a 00 00 	calll	2730 <.text+10D0>
10101626:	80 7d e7 00 	cmpb	$0, -25(%ebp)
1010162a:	75 05 	jne	5 <.text+631>
1010162c:	e8 bd 0a 00 00 	calll	2749 <.text+10EE>
10101631:	c7 45 fc fe ff ff ff 	movl	$4294967294, -4(%ebp)
10101638:	8b 45 e0 	movl	-32(%ebp), %eax
1010163b:	e8 16 08 00 00 	calll	2070 <.text+E56>
10101640:	c3 	retl
10101641:	e8 a7 04 00 00 	calll	1191 <.text+AED>
10101646:	e9 87 fe ff ff 	jmp	-377 <.text+4D2>
1010164b:	55 	pushl	%ebp
1010164c:	8b ec 	movl	%esp, %ebp
1010164e:	56 	pushl	%esi
1010164f:	ff 75 08 	pushl	8(%ebp)
10101652:	8b f1 	movl	%ecx, %esi
10101654:	e8 58 00 00 00 	calll	88 <.text+6B1>
10101659:	c7 06 f4 31 10 10 	movl	$269496820, (%esi)
1010165f:	8b c6 	movl	%esi, %eax
10101661:	5e 	popl	%esi
10101662:	5d 	popl	%ebp
10101663:	c2 04 00 	retl	$4
10101666:	83 61 04 00 	andl	$0, 4(%ecx)
1010166a:	8b c1 	movl	%ecx, %eax
1010166c:	83 61 08 00 	andl	$0, 8(%ecx)
10101670:	c7 41 04 fc 31 10 10 	movl	$269496828, 4(%ecx)
10101677:	c7 01 f4 31 10 10 	movl	$269496820, (%ecx)
1010167d:	c3 	retl
1010167e:	55 	pushl	%ebp
1010167f:	8b ec 	movl	%esp, %ebp
10101681:	56 	pushl	%esi
10101682:	ff 75 08 	pushl	8(%ebp)
10101685:	8b f1 	movl	%ecx, %esi
10101687:	e8 25 00 00 00 	calll	37 <.text+6B1>
1010168c:	c7 06 10 32 10 10 	movl	$269496848, (%esi)
10101692:	8b c6 	movl	%esi, %eax
10101694:	5e 	popl	%esi
10101695:	5d 	popl	%ebp
10101696:	c2 04 00 	retl	$4
10101699:	83 61 04 00 	andl	$0, 4(%ecx)
1010169d:	8b c1 	movl	%ecx, %eax
1010169f:	83 61 08 00 	andl	$0, 8(%ecx)
101016a3:	c7 41 04 18 32 10 10 	movl	$269496856, 4(%ecx)
101016aa:	c7 01 10 32 10 10 	movl	$269496848, (%ecx)
101016b0:	c3 	retl
101016b1:	55 	pushl	%ebp
101016b2:	8b ec 	movl	%esp, %ebp
101016b4:	56 	pushl	%esi
101016b5:	8b f1 	movl	%ecx, %esi
101016b7:	8d 46 04 	leal	4(%esi), %eax
101016ba:	c7 06 d4 31 10 10 	movl	$269496788, (%esi)
101016c0:	83 20 00 	andl	$0, (%eax)
101016c3:	83 60 04 00 	andl	$0, 4(%eax)
101016c7:	50 	pushl	%eax
101016c8:	8b 45 08 	movl	8(%ebp), %eax
101016cb:	83 c0 04 	addl	$4, %eax
101016ce:	50 	pushl	%eax
101016cf:	e8 9c 09 00 00 	calll	2460 <.text+1070>
101016d4:	59 	popl	%ecx
101016d5:	59 	popl	%ecx
101016d6:	8b c6 	movl	%esi, %eax
101016d8:	5e 	popl	%esi
101016d9:	5d 	popl	%ebp
101016da:	c2 04 00 	retl	$4
101016dd:	8d 41 04 	leal	4(%ecx), %eax
101016e0:	c7 01 d4 31 10 10 	movl	$269496788, (%ecx)
101016e6:	50 	pushl	%eax
101016e7:	e8 8a 09 00 00 	calll	2442 <.text+1076>
101016ec:	59 	popl	%ecx
101016ed:	c3 	retl
101016ee:	55 	pushl	%ebp
101016ef:	8b ec 	movl	%esp, %ebp
101016f1:	56 	pushl	%esi
101016f2:	8b f1 	movl	%ecx, %esi
101016f4:	8d 46 04 	leal	4(%esi), %eax
101016f7:	c7 06 d4 31 10 10 	movl	$269496788, (%esi)
101016fd:	50 	pushl	%eax
101016fe:	e8 73 09 00 00 	calll	2419 <.text+1076>
10101703:	f6 45 08 01 	testb	$1, 8(%ebp)
10101707:	59 	popl	%ecx
10101708:	74 0a 	je	10 <.text+714>
1010170a:	6a 0c 	pushl	$12
1010170c:	56 	pushl	%esi
1010170d:	e8 7c 07 00 00 	calll	1916 <.text+E8E>
10101712:	59 	popl	%ecx
10101713:	59 	popl	%ecx
10101714:	8b c6 	movl	%esi, %eax
10101716:	5e 	popl	%esi
10101717:	5d 	popl	%ebp
10101718:	c2 04 00 	retl	$4
1010171b:	55 	pushl	%ebp
1010171c:	8b ec 	movl	%esp, %ebp
1010171e:	83 ec 0c 	subl	$12, %esp
10101721:	8d 4d f4 	leal	-12(%ebp), %ecx
10101724:	e8 3d ff ff ff 	calll	-195 <.text+666>
10101729:	68 74 37 10 10 	pushl	$269498228
1010172e:	8d 45 f4 	leal	-12(%ebp), %eax
10101731:	50 	pushl	%eax
10101732:	e8 45 09 00 00 	calll	2373 <.text+107C>
10101737:	cc 	int3
10101738:	55 	pushl	%ebp
10101739:	8b ec 	movl	%esp, %ebp
1010173b:	83 ec 0c 	subl	$12, %esp
1010173e:	8d 4d f4 	leal	-12(%ebp), %ecx
10101741:	e8 53 ff ff ff 	calll	-173 <.text+699>
10101746:	68 c8 37 10 10 	pushl	$269498312
1010174b:	8d 45 f4 	leal	-12(%ebp), %eax
1010174e:	50 	pushl	%eax
1010174f:	e8 28 09 00 00 	calll	2344 <.text+107C>
10101754:	cc 	int3
10101755:	8b 41 04 	movl	4(%ecx), %eax
10101758:	85 c0 	testl	%eax, %eax
1010175a:	75 05 	jne	5 <.text+761>
1010175c:	b8 dc 31 10 10 	movl	$269496796, %eax
10101761:	c3 	retl
10101762:	55 	pushl	%ebp
10101763:	8b ec 	movl	%esp, %ebp
10101765:	6a 00 	pushl	$0
10101767:	ff 15 00 30 10 10 	calll	*269496320
1010176d:	ff 75 08 	pushl	8(%ebp)
10101770:	ff 15 2c 30 10 10 	calll	*269496364
10101776:	68 09 04 00 c0 	pushl	$3221226505
1010177b:	ff 15 04 30 10 10 	calll	*269496324
10101781:	50 	pushl	%eax
10101782:	ff 15 08 30 10 10 	calll	*269496328
10101788:	5d 	popl	%ebp
10101789:	c3 	retl
1010178a:	55 	pushl	%ebp
1010178b:	8b ec 	movl	%esp, %ebp
1010178d:	81 ec 24 03 00 00 	subl	$804, %esp
10101793:	6a 17 	pushl	$23
10101795:	e8 96 09 00 00 	calll	2454 <.text+1130>
1010179a:	85 c0 	testl	%eax, %eax
1010179c:	74 05 	je	5 <.text+7A3>
1010179e:	6a 02 	pushl	$2
101017a0:	59 	popl	%ecx
101017a1:	cd 29 	int	$41
101017a3:	a3 98 41 10 10 	movl	%eax, 269500824
101017a8:	89 0d 94 41 10 10 	movl	%ecx, 269500820
101017ae:	89 15 90 41 10 10 	movl	%edx, 269500816
101017b4:	89 1d 8c 41 10 10 	movl	%ebx, 269500812
101017ba:	89 35 88 41 10 10 	movl	%esi, 269500808
101017c0:	89 3d 84 41 10 10 	movl	%edi, 269500804
101017c6:	66 8c 15 b0 41 10 10 	movw	%ss, 269500848
101017cd:	66 8c 0d a4 41 10 10 	movw	%cs, 269500836
101017d4:	66 8c 1d 80 41 10 10 	movw	%ds, 269500800
101017db:	66 8c 05 7c 41 10 10 	movw	%es, 269500796
101017e2:	66 8c 25 78 41 10 10 	movw	%fs, 269500792
101017e9:	66 8c 2d 74 41 10 10 	movw	%gs, 269500788
101017f0:	9c 	pushfl
101017f1:	8f 05 a8 41 10 10 	popl	269500840
101017f7:	8b 45 00 	movl	(%ebp), %eax
101017fa:	a3 9c 41 10 10 	movl	%eax, 269500828
101017ff:	8b 45 04 	movl	4(%ebp), %eax
10101802:	a3 a0 41 10 10 	movl	%eax, 269500832
10101807:	8d 45 08 	leal	8(%ebp), %eax
1010180a:	a3 ac 41 10 10 	movl	%eax, 269500844
1010180f:	8b 85 dc fc ff ff 	movl	-804(%ebp), %eax
10101815:	c7 05 e8 40 10 10 01 00 01 00 	movl	$65537, 269500648
1010181f:	a1 a0 41 10 10 	movl	269500832, %eax
10101824:	a3 a4 40 10 10 	movl	%eax, 269500580
10101829:	c7 05 98 40 10 10 09 04 00 c0 	movl	$3221226505, 269500568
10101833:	c7 05 9c 40 10 10 01 00 00 00 	movl	$1, 269500572
1010183d:	c7 05 a8 40 10 10 01 00 00 00 	movl	$1, 269500584
10101847:	6a 04 	pushl	$4
10101849:	58 	popl	%eax
1010184a:	6b c0 00 	imull	$0, %eax, %eax
1010184d:	c7 80 ac 40 10 10 02 00 00 00 	movl	$2, 269500588(%eax)
10101857:	6a 04 	pushl	$4
10101859:	58 	popl	%eax
1010185a:	6b c0 00 	imull	$0, %eax, %eax
1010185d:	8b 0d 04 40 10 10 	movl	269500420, %ecx
10101863:	89 4c 05 f8 	movl	%ecx, -8(%ebp,%eax)
10101867:	6a 04 	pushl	$4
10101869:	58 	popl	%eax
1010186a:	c1 e0 00 	shll	$0, %eax
1010186d:	8b 0d 00 40 10 10 	movl	269500416, %ecx
10101873:	89 4c 05 f8 	movl	%ecx, -8(%ebp,%eax)
10101877:	68 30 32 10 10 	pushl	$269496880
1010187c:	e8 e1 fe ff ff 	calll	-287 <.text+762>
10101881:	8b e5 	movl	%ebp, %esp
10101883:	5d 	popl	%ebp
10101884:	c3 	retl
10101885:	55 	pushl	%ebp
10101886:	8b ec 	movl	%esp, %ebp
10101888:	8b 45 08 	movl	8(%ebp), %eax
1010188b:	56 	pushl	%esi
1010188c:	8b 48 3c 	movl	60(%eax), %ecx
1010188f:	03 c8 	addl	%eax, %ecx
10101891:	0f b7 41 14 	movzwl	20(%ecx), %eax
10101895:	8d 51 18 	leal	24(%ecx), %edx
10101898:	03 d0 	addl	%eax, %edx
1010189a:	0f b7 41 06 	movzwl	6(%ecx), %eax
1010189e:	6b f0 28 	imull	$40, %eax, %esi
101018a1:	03 f2 	addl	%edx, %esi
101018a3:	3b d6 	cmpl	%esi, %edx
101018a5:	74 19 	je	25 <.text+8C0>
101018a7:	8b 4d 0c 	movl	12(%ebp), %ecx
101018aa:	3b 4a 0c 	cmpl	12(%edx), %ecx
101018ad:	72 0a 	jb	10 <.text+8B9>
101018af:	8b 42 08 	movl	8(%edx), %eax
101018b2:	03 42 0c 	addl	12(%edx), %eax
101018b5:	3b c8 	cmpl	%eax, %ecx
101018b7:	72 0c 	jb	12 <.text+8C5>
101018b9:	83 c2 28 	addl	$40, %edx
101018bc:	3b d6 	cmpl	%esi, %edx
101018be:	75 ea 	jne	-22 <.text+8AA>
101018c0:	33 c0 	xorl	%eax, %eax
101018c2:	5e 	popl	%esi
101018c3:	5d 	popl	%ebp
101018c4:	c3 	retl
101018c5:	8b c2 	movl	%edx, %eax
101018c7:	eb f9 	jmp	-7 <.text+8C2>
101018c9:	e8 8b 07 00 00 	calll	1931 <.text+1059>
101018ce:	85 c0 	testl	%eax, %eax
101018d0:	75 03 	jne	3 <.text+8D5>
101018d2:	32 c0 	xorb	%al, %al
101018d4:	c3 	retl
101018d5:	64 a1 18 00 00 00 	movl	%fs:24, %eax
101018db:	56 	pushl	%esi
101018dc:	be b8 43 10 10 	movl	$269501368, %esi
101018e1:	8b 50 04 	movl	4(%eax), %edx
101018e4:	eb 04 	jmp	4 <.text+8EA>
101018e6:	3b d0 	cmpl	%eax, %edx
101018e8:	74 10 	je	16 <.text+8FA>
101018ea:	33 c0 	xorl	%eax, %eax
101018ec:	8b ca 	movl	%edx, %ecx
101018ee:	f0 	lock
101018ef:	0f b1 0e 	cmpxchgl	%ecx, (%esi)
101018f2:	85 c0 	testl	%eax, %eax
101018f4:	75 f0 	jne	-16 <.text+8E6>
101018f6:	32 c0 	xorb	%al, %al
101018f8:	5e 	popl	%esi
101018f9:	c3 	retl
101018fa:	b0 01 	movb	$1, %al
101018fc:	5e 	popl	%esi
101018fd:	c3 	retl
101018fe:	55 	pushl	%ebp
101018ff:	8b ec 	movl	%esp, %ebp
10101901:	83 7d 08 00 	cmpl	$0, 8(%ebp)
10101905:	75 07 	jne	7 <.text+90E>
10101907:	c6 05 d4 43 10 10 01 	movb	$1, 269501396
1010190e:	e8 ac 05 00 00 	calll	1452 <.text+EBF>
10101913:	e8 1e 08 00 00 	calll	2078 <.text+1136>
10101918:	84 c0 	testb	%al, %al
1010191a:	75 04 	jne	4 <.text+920>
1010191c:	32 c0 	xorb	%al, %al
1010191e:	5d 	popl	%ebp
1010191f:	c3 	retl
10101920:	e8 11 08 00 00 	calll	2065 <.text+1136>
10101925:	84 c0 	testb	%al, %al
10101927:	75 0a 	jne	10 <.text+933>
10101929:	6a 00 	pushl	$0
1010192b:	e8 06 08 00 00 	calll	2054 <.text+1136>
10101930:	59 	popl	%ecx
10101931:	eb e9 	jmp	-23 <.text+91C>
10101933:	b0 01 	movb	$1, %al
10101935:	5d 	popl	%ebp
10101936:	c3 	retl
10101937:	55 	pushl	%ebp
10101938:	8b ec 	movl	%esp, %ebp
1010193a:	83 ec 0c 	subl	$12, %esp
1010193d:	56 	pushl	%esi
1010193e:	8b 75 08 	movl	8(%ebp), %esi
10101941:	85 f6 	testl	%esi, %esi
10101943:	74 05 	je	5 <.text+94A>
10101945:	83 fe 01 	cmpl	$1, %esi
10101948:	75 7c 	jne	124 <.text+9C6>
1010194a:	e8 0a 07 00 00 	calll	1802 <.text+1059>
1010194f:	85 c0 	testl	%eax, %eax
10101951:	74 2a 	je	42 <.text+97D>
10101953:	85 f6 	testl	%esi, %esi
10101955:	75 26 	jne	38 <.text+97D>
10101957:	68 bc 43 10 10 	pushl	$269501372
1010195c:	e8 ab 07 00 00 	calll	1963 <.text+110C>
10101961:	59 	popl	%ecx
10101962:	85 c0 	testl	%eax, %eax
10101964:	74 04 	je	4 <.text+96A>
10101966:	32 c0 	xorb	%al, %al
10101968:	eb 57 	jmp	87 <.text+9C1>
1010196a:	68 c8 43 10 10 	pushl	$269501384
1010196f:	e8 98 07 00 00 	calll	1944 <.text+110C>
10101974:	f7 d8 	negl	%eax
10101976:	59 	popl	%ecx
10101977:	1a c0 	sbbb	%al, %al
10101979:	fe c0 	incb	%al
1010197b:	eb 44 	jmp	68 <.text+9C1>
1010197d:	a1 04 40 10 10 	movl	269500420, %eax
10101982:	8d 75 f4 	leal	-12(%ebp), %esi
10101985:	57 	pushl	%edi
10101986:	83 e0 1f 	andl	$31, %eax
10101989:	bf bc 43 10 10 	movl	$269501372, %edi
1010198e:	6a 20 	pushl	$32
10101990:	59 	popl	%ecx
10101991:	2b c8 	subl	%eax, %ecx
10101993:	83 c8 ff 	orl	$-1, %eax
10101996:	d3 c8 	rorl	%cl, %eax
10101998:	33 05 04 40 10 10 	xorl	269500420, %eax
1010199e:	89 45 f4 	movl	%eax, -12(%ebp)
101019a1:	89 45 f8 	movl	%eax, -8(%ebp)
101019a4:	89 45 fc 	movl	%eax, -4(%ebp)
101019a7:	a5 	movsl	(%esi), %es:(%edi)
101019a8:	a5 	movsl	(%esi), %es:(%edi)
101019a9:	a5 	movsl	(%esi), %es:(%edi)
101019aa:	bf c8 43 10 10 	movl	$269501384, %edi
101019af:	89 45 f4 	movl	%eax, -12(%ebp)
101019b2:	89 45 f8 	movl	%eax, -8(%ebp)
101019b5:	8d 75 f4 	leal	-12(%ebp), %esi
101019b8:	89 45 fc 	movl	%eax, -4(%ebp)
101019bb:	b0 01 	movb	$1, %al
101019bd:	a5 	movsl	(%esi), %es:(%edi)
101019be:	a5 	movsl	(%esi), %es:(%edi)
101019bf:	a5 	movsl	(%esi), %es:(%edi)
101019c0:	5f 	popl	%edi
101019c1:	5e 	popl	%esi
101019c2:	8b e5 	movl	%ebp, %esp
101019c4:	5d 	popl	%ebp
101019c5:	c3 	retl
101019c6:	6a 05 	pushl	$5
101019c8:	e8 32 02 00 00 	calll	562 <.text+BFF>
101019cd:	cc 	int3
101019ce:	6a 08 	pushl	$8
101019d0:	68 08 38 10 10 	pushl	$269498376
101019d5:	e8 36 04 00 00 	calll	1078 <.text+E10>
101019da:	83 65 fc 00 	andl	$0, -4(%ebp)
101019de:	b8 4d 5a 00 00 	movl	$23117, %eax
101019e3:	66 39 05 00 00 10 10 	cmpw	%ax, 269484032
101019ea:	75 5d 	jne	93 <.text+A49>
101019ec:	a1 3c 00 10 10 	movl	269484092, %eax
101019f1:	81 b8 00 00 10 10 50 45 00 00 	cmpl	$17744, 269484032(%eax)
101019fb:	75 4c 	jne	76 <.text+A49>
101019fd:	b9 0b 01 00 00 	movl	$267, %ecx
10101a02:	66 39 88 18 00 10 10 	cmpw	%cx, 269484056(%eax)
10101a09:	75 3e 	jne	62 <.text+A49>
10101a0b:	8b 45 08 	movl	8(%ebp), %eax
10101a0e:	b9 00 00 10 10 	movl	$269484032, %ecx
10101a13:	2b c1 	subl	%ecx, %eax
10101a15:	50 	pushl	%eax
10101a16:	51 	pushl	%ecx
10101a17:	e8 69 fe ff ff 	calll	-407 <.text+885>
10101a1c:	59 	popl	%ecx
10101a1d:	59 	popl	%ecx
10101a1e:	85 c0 	testl	%eax, %eax
10101a20:	74 27 	je	39 <.text+A49>
10101a22:	83 78 24 00 	cmpl	$0, 36(%eax)
10101a26:	7c 21 	jl	33 <.text+A49>
10101a28:	c7 45 fc fe ff ff ff 	movl	$4294967294, -4(%ebp)
10101a2f:	b0 01 	movb	$1, %al
10101a31:	eb 1f 	jmp	31 <.text+A52>
10101a33:	8b 45 ec 	movl	-20(%ebp), %eax
10101a36:	8b 00 	movl	(%eax), %eax
10101a38:	33 c9 	xorl	%ecx, %ecx
10101a3a:	81 38 05 00 00 c0 	cmpl	$3221225477, (%eax)
10101a40:	0f 94 c1 	sete	%cl
10101a43:	8b c1 	movl	%ecx, %eax
10101a45:	c3 	retl
10101a46:	8b 65 e8 	movl	-24(%ebp), %esp
10101a49:	c7 45 fc fe ff ff ff 	movl	$4294967294, -4(%ebp)
10101a50:	32 c0 	xorb	%al, %al
10101a52:	e8 ff 03 00 00 	calll	1023 <.text+E56>
10101a57:	c3 	retl
10101a58:	55 	pushl	%ebp
10101a59:	8b ec 	movl	%esp, %ebp
10101a5b:	e8 f9 05 00 00 	calll	1529 <.text+1059>
10101a60:	85 c0 	testl	%eax, %eax
10101a62:	74 0f 	je	15 <.text+A73>
10101a64:	80 7d 08 00 	cmpb	$0, 8(%ebp)
10101a68:	75 09 	jne	9 <.text+A73>
10101a6a:	33 c0 	xorl	%eax, %eax
10101a6c:	b9 b8 43 10 10 	movl	$269501368, %ecx
10101a71:	87 01 	xchgl	%eax, (%ecx)
10101a73:	5d 	popl	%ebp
10101a74:	c3 	retl
10101a75:	55 	pushl	%ebp
10101a76:	8b ec 	movl	%esp, %ebp
10101a78:	80 3d d4 43 10 10 00 	cmpb	$0, 269501396
10101a7f:	74 06 	je	6 <.text+A87>
10101a81:	80 7d 0c 00 	cmpb	$0, 12(%ebp)
10101a85:	75 12 	jne	18 <.text+A99>
10101a87:	ff 75 08 	pushl	8(%ebp)
10101a8a:	e8 a7 06 00 00 	calll	1703 <.text+1136>
10101a8f:	ff 75 08 	pushl	8(%ebp)
10101a92:	e8 9f 06 00 00 	calll	1695 <.text+1136>
10101a97:	59 	popl	%ecx
10101a98:	59 	popl	%ecx
10101a99:	b0 01 	movb	$1, %al
10101a9b:	5d 	popl	%ebp
10101a9c:	c3 	retl
10101a9d:	55 	pushl	%ebp
10101a9e:	8b ec 	movl	%esp, %ebp
10101aa0:	a1 04 40 10 10 	movl	269500420, %eax
10101aa5:	8b c8 	movl	%eax, %ecx
10101aa7:	33 05 bc 43 10 10 	xorl	269501372, %eax
10101aad:	83 e1 1f 	andl	$31, %ecx
10101ab0:	ff 75 08 	pushl	8(%ebp)
10101ab3:	d3 c8 	rorl	%cl, %eax
10101ab5:	83 f8 ff 	cmpl	$-1, %eax
10101ab8:	75 07 	jne	7 <.text+AC1>
10101aba:	e8 59 06 00 00 	calll	1625 <.text+1118>
10101abf:	eb 0b 	jmp	11 <.text+ACC>
10101ac1:	68 bc 43 10 10 	pushl	$269501372
10101ac6:	e8 47 06 00 00 	calll	1607 <.text+1112>
10101acb:	59 	popl	%ecx
10101acc:	f7 d8 	negl	%eax
10101ace:	59 	popl	%ecx
10101acf:	1b c0 	sbbl	%eax, %eax
10101ad1:	f7 d0 	notl	%eax
10101ad3:	23 45 08 	andl	8(%ebp), %eax
10101ad6:	5d 	popl	%ebp
10101ad7:	c3 	retl
10101ad8:	55 	pushl	%ebp
10101ad9:	8b ec 	movl	%esp, %ebp
10101adb:	ff 75 08 	pushl	8(%ebp)
10101ade:	e8 ba ff ff ff 	calll	-70 <.text+A9D>
10101ae3:	f7 d8 	negl	%eax
10101ae5:	59 	popl	%ecx
10101ae6:	1b c0 	sbbl	%eax, %eax
10101ae8:	f7 d8 	negl	%eax
10101aea:	48 	decl	%eax
10101aeb:	5d 	popl	%ebp
10101aec:	c3 	retl
10101aed:	55 	pushl	%ebp
10101aee:	8b ec 	movl	%esp, %ebp
10101af0:	83 ec 14 	subl	$20, %esp
10101af3:	83 65 f4 00 	andl	$0, -12(%ebp)
10101af7:	83 65 f8 00 	andl	$0, -8(%ebp)
10101afb:	a1 04 40 10 10 	movl	269500420, %eax
10101b00:	56 	pushl	%esi
10101b01:	57 	pushl	%edi
10101b02:	bf 4e e6 40 bb 	movl	$3141592654, %edi
10101b07:	be 00 00 ff ff 	movl	$4294901760, %esi
10101b0c:	3b c7 	cmpl	%edi, %eax
10101b0e:	74 0d 	je	13 <.text+B1D>
10101b10:	85 c6 	testl	%eax, %esi
10101b12:	74 09 	je	9 <.text+B1D>
10101b14:	f7 d0 	notl	%eax
10101b16:	a3 00 40 10 10 	movl	%eax, 269500416
10101b1b:	eb 66 	jmp	102 <.text+B83>
10101b1d:	8d 45 f4 	leal	-12(%ebp), %eax
10101b20:	50 	pushl	%eax
10101b21:	ff 15 24 30 10 10 	calll	*269496356
10101b27:	8b 45 f8 	movl	-8(%ebp), %eax
10101b2a:	33 45 f4 	xorl	-12(%ebp), %eax
10101b2d:	89 45 fc 	movl	%eax, -4(%ebp)
10101b30:	ff 15 28 30 10 10 	calll	*269496360
10101b36:	31 45 fc 	xorl	%eax, -4(%ebp)
10101b39:	ff 15 14 30 10 10 	calll	*269496340
10101b3f:	31 45 fc 	xorl	%eax, -4(%ebp)
10101b42:	8d 45 ec 	leal	-20(%ebp), %eax
10101b45:	50 	pushl	%eax
10101b46:	ff 15 10 30 10 10 	calll	*269496336
10101b4c:	8b 4d f0 	movl	-16(%ebp), %ecx
10101b4f:	8d 45 fc 	leal	-4(%ebp), %eax
10101b52:	33 4d ec 	xorl	-20(%ebp), %ecx
10101b55:	33 4d fc 	xorl	-4(%ebp), %ecx
10101b58:	33 c8 	xorl	%eax, %ecx
10101b5a:	3b cf 	cmpl	%edi, %ecx
10101b5c:	75 07 	jne	7 <.text+B65>
10101b5e:	b9 4f e6 40 bb 	movl	$3141592655, %ecx
10101b63:	eb 10 	jmp	16 <.text+B75>
10101b65:	85 ce 	testl	%ecx, %esi
10101b67:	75 0c 	jne	12 <.text+B75>
10101b69:	8b c1 	movl	%ecx, %eax
10101b6b:	0d 11 47 00 00 	orl	$18193, %eax
10101b70:	c1 e0 10 	shll	$16, %eax
10101b73:	0b c8 	orl	%eax, %ecx
10101b75:	89 0d 04 40 10 10 	movl	%ecx, 269500420
10101b7b:	f7 d1 	notl	%ecx
10101b7d:	89 0d 00 40 10 10 	movl	%ecx, 269500416
10101b83:	5f 	popl	%edi
10101b84:	5e 	popl	%esi
10101b85:	8b e5 	movl	%ebp, %esp
10101b87:	5d 	popl	%ebp
10101b88:	c3 	retl
10101b89:	33 c0 	xorl	%eax, %eax
10101b8b:	c3 	retl
10101b8c:	33 c0 	xorl	%eax, %eax
10101b8e:	40 	incl	%eax
10101b8f:	c3 	retl
10101b90:	b8 00 40 00 00 	movl	$16384, %eax
10101b95:	c3 	retl
10101b96:	68 d8 43 10 10 	pushl	$269501400
10101b9b:	ff 15 20 30 10 10 	calll	*269496352
10101ba1:	c3 	retl
10101ba2:	68 00 00 03 00 	pushl	$196608
10101ba7:	68 00 00 01 00 	pushl	$65536
10101bac:	6a 00 	pushl	$0
10101bae:	e8 6b 05 00 00 	calll	1387 <.text+111E>
10101bb3:	83 c4 0c 	addl	$12, %esp
10101bb6:	85 c0 	testl	%eax, %eax
10101bb8:	75 01 	jne	1 <.text+BBB>
10101bba:	c3 	retl
10101bbb:	6a 07 	pushl	$7
10101bbd:	e8 3d 00 00 00 	calll	61 <.text+BFF>
10101bc2:	cc 	int3
10101bc3:	c3 	retl
10101bc4:	b8 e0 43 10 10 	movl	$269501408, %eax
10101bc9:	c3 	retl
10101bca:	e8 c1 f5 ff ff 	calll	-2623 <.text+190>
10101bcf:	8b 48 04 	movl	4(%eax), %ecx
10101bd2:	83 08 04 	orl	$4, (%eax)
10101bd5:	89 48 04 	movl	%ecx, 4(%eax)
10101bd8:	e8 e7 ff ff ff 	calll	-25 <.text+BC4>
10101bdd:	8b 48 04 	movl	4(%eax), %ecx
10101be0:	83 08 02 	orl	$2, (%eax)
10101be3:	89 48 04 	movl	%ecx, 4(%eax)
10101be6:	c3 	retl
10101be7:	33 c0 	xorl	%eax, %eax
10101be9:	39 05 0c 40 10 10 	cmpl	%eax, 269500428
10101bef:	0f 94 c0 	sete	%al
10101bf2:	c3 	retl
10101bf3:	b8 f8 43 10 10 	movl	$269501432, %eax
10101bf8:	c3 	retl
10101bf9:	b8 f4 43 10 10 	movl	$269501428, %eax
10101bfe:	c3 	retl
10101bff:	55 	pushl	%ebp
10101c00:	8b ec 	movl	%esp, %ebp
10101c02:	81 ec 24 03 00 00 	subl	$804, %esp
10101c08:	53 	pushl	%ebx
10101c09:	56 	pushl	%esi
10101c0a:	6a 17 	pushl	$23
10101c0c:	e8 1f 05 00 00 	calll	1311 <.text+1130>
10101c11:	85 c0 	testl	%eax, %eax
10101c13:	74 05 	je	5 <.text+C1A>
10101c15:	8b 4d 08 	movl	8(%ebp), %ecx
10101c18:	cd 29 	int	$41
10101c1a:	33 f6 	xorl	%esi, %esi
10101c1c:	8d 85 dc fc ff ff 	leal	-804(%ebp), %eax
10101c22:	68 cc 02 00 00 	pushl	$716
10101c27:	56 	pushl	%esi
10101c28:	50 	pushl	%eax
10101c29:	89 35 e8 43 10 10 	movl	%esi, 269501416
10101c2f:	e8 36 04 00 00 	calll	1078 <.text+106A>
10101c34:	83 c4 0c 	addl	$12, %esp
10101c37:	89 85 8c fd ff ff 	movl	%eax, -628(%ebp)
10101c3d:	89 8d 88 fd ff ff 	movl	%ecx, -632(%ebp)
10101c43:	89 95 84 fd ff ff 	movl	%edx, -636(%ebp)
10101c49:	89 9d 80 fd ff ff 	movl	%ebx, -640(%ebp)
10101c4f:	89 b5 7c fd ff ff 	movl	%esi, -644(%ebp)
10101c55:	89 bd 78 fd ff ff 	movl	%edi, -648(%ebp)
10101c5b:	66 8c 95 a4 fd ff ff 	movw	%ss, -604(%ebp)
10101c62:	66 8c 8d 98 fd ff ff 	movw	%cs, -616(%ebp)
10101c69:	66 8c 9d 74 fd ff ff 	movw	%ds, -652(%ebp)
10101c70:	66 8c 85 70 fd ff ff 	movw	%es, -656(%ebp)
10101c77:	66 8c a5 6c fd ff ff 	movw	%fs, -660(%ebp)
10101c7e:	66 8c ad 68 fd ff ff 	movw	%gs, -664(%ebp)
10101c85:	9c 	pushfl
10101c86:	8f 85 9c fd ff ff 	popl	-612(%ebp)
10101c8c:	8b 45 04 	movl	4(%ebp), %eax
10101c8f:	89 85 94 fd ff ff 	movl	%eax, -620(%ebp)
10101c95:	8d 45 04 	leal	4(%ebp), %eax
10101c98:	89 85 a0 fd ff ff 	movl	%eax, -608(%ebp)
10101c9e:	c7 85 dc fc ff ff 01 00 01 00 	movl	$65537, -804(%ebp)
10101ca8:	8b 40 fc 	movl	-4(%eax), %eax
10101cab:	6a 50 	pushl	$80
10101cad:	89 85 90 fd ff ff 	movl	%eax, -624(%ebp)
10101cb3:	8d 45 a8 	leal	-88(%ebp), %eax
10101cb6:	56 	pushl	%esi
10101cb7:	50 	pushl	%eax
10101cb8:	e8 ad 03 00 00 	calll	941 <.text+106A>
10101cbd:	8b 45 04 	movl	4(%ebp), %eax
10101cc0:	83 c4 0c 	addl	$12, %esp
10101cc3:	c7 45 a8 15 00 00 40 	movl	$1073741845, -88(%ebp)
10101cca:	c7 45 ac 01 00 00 00 	movl	$1, -84(%ebp)
10101cd1:	89 45 b4 	movl	%eax, -76(%ebp)
10101cd4:	ff 15 1c 30 10 10 	calll	*269496348
10101cda:	56 	pushl	%esi
10101cdb:	8d 58 ff 	leal	-1(%eax), %ebx
10101cde:	f7 db 	negl	%ebx
10101ce0:	8d 45 a8 	leal	-88(%ebp), %eax
10101ce3:	89 45 f8 	movl	%eax, -8(%ebp)
10101ce6:	8d 85 dc fc ff ff 	leal	-804(%ebp), %eax
10101cec:	1a db 	sbbb	%bl, %bl
10101cee:	89 45 fc 	movl	%eax, -4(%ebp)
10101cf1:	fe c3 	incb	%bl
10101cf3:	ff 15 00 30 10 10 	calll	*269496320
10101cf9:	8d 45 f8 	leal	-8(%ebp), %eax
10101cfc:	50 	pushl	%eax
10101cfd:	ff 15 2c 30 10 10 	calll	*269496364
10101d03:	85 c0 	testl	%eax, %eax
10101d05:	75 0d 	jne	13 <.text+D14>
10101d07:	0f b6 c3 	movzbl	%bl, %eax
10101d0a:	f7 d8 	negl	%eax
10101d0c:	1b c0 	sbbl	%eax, %eax
10101d0e:	21 05 e8 43 10 10 	andl	%eax, 269501416
10101d14:	5e 	popl	%esi
10101d15:	5b 	popl	%ebx
10101d16:	8b e5 	movl	%ebp, %esp
10101d18:	5d 	popl	%ebp
10101d19:	c3 	retl
10101d1a:	6a 00 	pushl	$0
10101d1c:	ff 15 18 30 10 10 	calll	*269496344
10101d22:	8b c8 	movl	%eax, %ecx
10101d24:	85 c9 	testl	%ecx, %ecx
10101d26:	75 03 	jne	3 <.text+D2B>
10101d28:	32 c0 	xorb	%al, %al
10101d2a:	c3 	retl
10101d2b:	b8 4d 5a 00 00 	movl	$23117, %eax
10101d30:	66 39 01 	cmpw	%ax, (%ecx)
10101d33:	75 f3 	jne	-13 <.text+D28>
10101d35:	8b 41 3c 	movl	60(%ecx), %eax
10101d38:	03 c1 	addl	%ecx, %eax
10101d3a:	81 38 50 45 00 00 	cmpl	$17744, (%eax)
10101d40:	75 e6 	jne	-26 <.text+D28>
10101d42:	b9 0b 01 00 00 	movl	$267, %ecx
10101d47:	66 39 48 18 	cmpw	%cx, 24(%eax)
10101d4b:	75 db 	jne	-37 <.text+D28>
10101d4d:	83 78 74 0e 	cmpl	$14, 116(%eax)
10101d51:	76 d5 	jbe	-43 <.text+D28>
10101d53:	83 b8 e8 00 00 00 00 	cmpl	$0, 232(%eax)
10101d5a:	0f 95 c0 	setne	%al
10101d5d:	c3 	retl
10101d5e:	68 6a 1d 10 10 	pushl	$269491562
10101d63:	ff 15 00 30 10 10 	calll	*269496320
10101d69:	c3 	retl
10101d6a:	55 	pushl	%ebp
10101d6b:	8b ec 	movl	%esp, %ebp
10101d6d:	8b 45 08 	movl	8(%ebp), %eax
10101d70:	8b 00 	movl	(%eax), %eax
10101d72:	81 38 63 73 6d e0 	cmpl	$3765269347, (%eax)
10101d78:	75 25 	jne	37 <.text+D9F>
10101d7a:	83 78 10 03 	cmpl	$3, 16(%eax)
10101d7e:	75 1f 	jne	31 <.text+D9F>
10101d80:	8b 40 14 	movl	20(%eax), %eax
10101d83:	3d 20 05 93 19 	cmpl	$429065504, %eax
10101d88:	74 1b 	je	27 <.text+DA5>
10101d8a:	3d 21 05 93 19 	cmpl	$429065505, %eax
10101d8f:	74 14 	je	20 <.text+DA5>
10101d91:	3d 22 05 93 19 	cmpl	$429065506, %eax
10101d96:	74 0d 	je	13 <.text+DA5>
10101d98:	3d 00 40 99 01 	cmpl	$26820608, %eax
10101d9d:	74 06 	je	6 <.text+DA5>
10101d9f:	33 c0 	xorl	%eax, %eax
10101da1:	5d 	popl	%ebp
10101da2:	c2 04 00 	retl	$4
10101da5:	e8 7a 03 00 00 	calll	890 <.text+1124>
10101daa:	cc 	int3
10101dab:	53 	pushl	%ebx
10101dac:	56 	pushl	%esi
10101dad:	be 48 37 10 10 	movl	$269498184, %esi
10101db2:	bb 48 37 10 10 	movl	$269498184, %ebx
10101db7:	3b f3 	cmpl	%ebx, %esi
10101db9:	73 18 	jae	24 <.text+DD3>
10101dbb:	57 	pushl	%edi
10101dbc:	8b 3e 	movl	(%esi), %edi
10101dbe:	85 ff 	testl	%edi, %edi
10101dc0:	74 09 	je	9 <.text+DCB>
10101dc2:	8b cf 	movl	%edi, %ecx
10101dc4:	e8 38 00 00 00 	calll	56 <.text+E01>
10101dc9:	ff d7 	calll	*%edi
10101dcb:	83 c6 04 	addl	$4, %esi
10101dce:	3b f3 	cmpl	%ebx, %esi
10101dd0:	72 ea 	jb	-22 <.text+DBC>
10101dd2:	5f 	popl	%edi
10101dd3:	5e 	popl	%esi
10101dd4:	5b 	popl	%ebx
10101dd5:	c3 	retl
10101dd6:	53 	pushl	%ebx
10101dd7:	56 	pushl	%esi
10101dd8:	be 50 37 10 10 	movl	$269498192, %esi
10101ddd:	bb 50 37 10 10 	movl	$269498192, %ebx
10101de2:	3b f3 	cmpl	%ebx, %esi
10101de4:	73 18 	jae	24 <.text+DFE>
10101de6:	57 	pushl	%edi
10101de7:	8b 3e 	movl	(%esi), %edi
10101de9:	85 ff 	testl	%edi, %edi
10101deb:	74 09 	je	9 <.text+DF6>
10101ded:	8b cf 	movl	%edi, %ecx
10101def:	e8 0d 00 00 00 	calll	13 <.text+E01>
10101df4:	ff d7 	calll	*%edi
10101df6:	83 c6 04 	addl	$4, %esi
10101df9:	3b f3 	cmpl	%ebx, %esi
10101dfb:	72 ea 	jb	-22 <.text+DE7>
10101dfd:	5f 	popl	%edi
10101dfe:	5e 	popl	%esi
10101dff:	5b 	popl	%ebx
10101e00:	c3 	retl
10101e01:	ff 25 ec 30 10 10 	jmpl	*269496556
10101e07:	cc 	int3
10101e08:	cc 	int3
10101e09:	cc 	int3
10101e0a:	cc 	int3
10101e0b:	cc 	int3
10101e0c:	cc 	int3
10101e0d:	cc 	int3
10101e0e:	cc 	int3
10101e0f:	cc 	int3
10101e10:	68 6b 1e 10 10 	pushl	$269491819
10101e15:	64 ff 35 00 00 00 00 	pushl	%fs:0
10101e1c:	8b 44 24 10 	movl	16(%esp), %eax
10101e20:	89 6c 24 10 	movl	%ebp, 16(%esp)
10101e24:	8d 6c 24 10 	leal	16(%esp), %ebp
10101e28:	2b e0 	subl	%eax, %esp
10101e2a:	53 	pushl	%ebx
10101e2b:	56 	pushl	%esi
10101e2c:	57 	pushl	%edi
10101e2d:	a1 04 40 10 10 	movl	269500420, %eax
10101e32:	31 45 fc 	xorl	%eax, -4(%ebp)
10101e35:	33 c5 	xorl	%ebp, %eax
10101e37:	50 	pushl	%eax
10101e38:	89 65 e8 	movl	%esp, -24(%ebp)
10101e3b:	ff 75 f8 	pushl	-8(%ebp)
10101e3e:	8b 45 fc 	movl	-4(%ebp), %eax
10101e41:	c7 45 fc fe ff ff ff 	movl	$4294967294, -4(%ebp)
10101e48:	89 45 f8 	movl	%eax, -8(%ebp)
10101e4b:	8d 45 f0 	leal	-16(%ebp), %eax
10101e4e:	64 a3 00 00 00 00 	movl	%eax, %fs:0
10101e54:	f2 	repne
10101e55:	c3 	retl
10101e56:	8b 4d f0 	movl	-16(%ebp), %ecx
10101e59:	64 89 0d 00 00 00 00 	movl	%ecx, %fs:0
10101e60:	59 	popl	%ecx
10101e61:	5f 	popl	%edi
10101e62:	5f 	popl	%edi
10101e63:	5e 	popl	%esi
10101e64:	5b 	popl	%ebx
10101e65:	8b e5 	movl	%ebp, %esp
10101e67:	5d 	popl	%ebp
10101e68:	51 	pushl	%ecx
10101e69:	f2 	repne
10101e6a:	c3 	retl
10101e6b:	55 	pushl	%ebp
10101e6c:	8b ec 	movl	%esp, %ebp
10101e6e:	ff 75 14 	pushl	20(%ebp)
10101e71:	ff 75 10 	pushl	16(%ebp)
10101e74:	ff 75 0c 	pushl	12(%ebp)
10101e77:	ff 75 08 	pushl	8(%ebp)
10101e7a:	68 03 14 10 10 	pushl	$269489155
10101e7f:	68 04 40 10 10 	pushl	$269500420
10101e84:	e8 f9 01 00 00 	calll	505 <.text+1082>
10101e89:	83 c4 18 	addl	$24, %esp
10101e8c:	5d 	popl	%ebp
10101e8d:	c3 	retl
10101e8e:	55 	pushl	%ebp
10101e8f:	8b ec 	movl	%esp, %ebp
10101e91:	ff 75 08 	pushl	8(%ebp)
10101e94:	e8 cc 01 00 00 	calll	460 <.text+1065>
10101e99:	59 	popl	%ecx
10101e9a:	5d 	popl	%ebp
10101e9b:	c3 	retl
10101e9c:	55 	pushl	%ebp
10101e9d:	8b ec 	movl	%esp, %ebp
10101e9f:	f6 45 08 01 	testb	$1, 8(%ebp)
10101ea3:	56 	pushl	%esi
10101ea4:	8b f1 	movl	%ecx, %esi
10101ea6:	c7 06 3c 32 10 10 	movl	$269496892, (%esi)
10101eac:	74 0a 	je	10 <.text+EB8>
10101eae:	6a 0c 	pushl	$12
10101eb0:	56 	pushl	%esi
10101eb1:	e8 d8 ff ff ff 	calll	-40 <.text+E8E>
10101eb6:	59 	popl	%ecx
10101eb7:	59 	popl	%ecx
10101eb8:	8b c6 	movl	%esi, %eax
10101eba:	5e 	popl	%esi
10101ebb:	5d 	popl	%ebp
10101ebc:	c2 04 00 	retl	$4
10101ebf:	55 	pushl	%ebp
10101ec0:	8b ec 	movl	%esp, %ebp
10101ec2:	83 25 ec 43 10 10 00 	andl	$0, 269501420
10101ec9:	83 ec 28 	subl	$40, %esp
10101ecc:	53 	pushl	%ebx
10101ecd:	33 db 	xorl	%ebx, %ebx
10101ecf:	43 	incl	%ebx
10101ed0:	09 1d 10 40 10 10 	orl	%ebx, 269500432
10101ed6:	6a 0a 	pushl	$10
10101ed8:	e8 53 02 00 00 	calll	595 <.text+1130>
10101edd:	85 c0 	testl	%eax, %eax
10101edf:	0f 84 6d 01 00 00 	je	365 <.text+1052>
10101ee5:	83 65 f0 00 	andl	$0, -16(%ebp)
10101ee9:	33 c0 	xorl	%eax, %eax
10101eeb:	83 0d 10 40 10 10 02 	orl	$2, 269500432
10101ef2:	33 c9 	xorl	%ecx, %ecx
10101ef4:	56 	pushl	%esi
10101ef5:	57 	pushl	%edi
10101ef6:	89 1d ec 43 10 10 	movl	%ebx, 269501420
10101efc:	8d 7d d8 	leal	-40(%ebp), %edi
10101eff:	53 	pushl	%ebx
10101f00:	0f a2 	cpuid
10101f02:	8b f3 	movl	%ebx, %esi
10101f04:	5b 	popl	%ebx
10101f05:	89 07 	movl	%eax, (%edi)
10101f07:	89 77 04 	movl	%esi, 4(%edi)
10101f0a:	89 4f 08 	movl	%ecx, 8(%edi)
10101f0d:	89 57 0c 	movl	%edx, 12(%edi)
10101f10:	8b 45 d8 	movl	-40(%ebp), %eax
10101f13:	8b 4d e4 	movl	-28(%ebp), %ecx
10101f16:	89 45 f8 	movl	%eax, -8(%ebp)
10101f19:	81 f1 69 6e 65 49 	xorl	$1231384169, %ecx
10101f1f:	8b 45 e0 	movl	-32(%ebp), %eax
10101f22:	35 6e 74 65 6c 	xorl	$1818588270, %eax
10101f27:	0b c8 	orl	%eax, %ecx
10101f29:	8b 45 dc 	movl	-36(%ebp), %eax
10101f2c:	6a 01 	pushl	$1
10101f2e:	35 47 65 6e 75 	xorl	$1970169159, %eax
10101f33:	0b c8 	orl	%eax, %ecx
10101f35:	58 	popl	%eax
10101f36:	6a 00 	pushl	$0
10101f38:	59 	popl	%ecx
10101f39:	53 	pushl	%ebx
10101f3a:	0f a2 	cpuid
10101f3c:	8b f3 	movl	%ebx, %esi
10101f3e:	5b 	popl	%ebx
10101f3f:	89 07 	movl	%eax, (%edi)
10101f41:	89 77 04 	movl	%esi, 4(%edi)
10101f44:	89 4f 08 	movl	%ecx, 8(%edi)
10101f47:	89 57 0c 	movl	%edx, 12(%edi)
10101f4a:	75 43 	jne	67 <.text+F8F>
10101f4c:	8b 45 d8 	movl	-40(%ebp), %eax
10101f4f:	25 f0 3f ff 0f 	andl	$268386288, %eax
10101f54:	3d c0 06 01 00 	cmpl	$67264, %eax
10101f59:	74 23 	je	35 <.text+F7E>
10101f5b:	3d 60 06 02 00 	cmpl	$132704, %eax
10101f60:	74 1c 	je	28 <.text+F7E>
10101f62:	3d 70 06 02 00 	cmpl	$132720, %eax
10101f67:	74 15 	je	21 <.text+F7E>
10101f69:	3d 50 06 03 00 	cmpl	$198224, %eax
10101f6e:	74 0e 	je	14 <.text+F7E>
10101f70:	3d 60 06 03 00 	cmpl	$198240, %eax
10101f75:	74 07 	je	7 <.text+F7E>
10101f77:	3d 70 06 03 00 	cmpl	$198256, %eax
10101f7c:	75 11 	jne	17 <.text+F8F>
10101f7e:	8b 3d f0 43 10 10 	movl	269501424, %edi
10101f84:	83 cf 01 	orl	$1, %edi
10101f87:	89 3d f0 43 10 10 	movl	%edi, 269501424
10101f8d:	eb 06 	jmp	6 <.text+F95>
10101f8f:	8b 3d f0 43 10 10 	movl	269501424, %edi
10101f95:	83 7d f8 07 	cmpl	$7, -8(%ebp)
10101f99:	8b 45 e4 	movl	-28(%ebp), %eax
10101f9c:	89 45 e8 	movl	%eax, -24(%ebp)
10101f9f:	8b 45 e0 	movl	-32(%ebp), %eax
10101fa2:	89 45 fc 	movl	%eax, -4(%ebp)
10101fa5:	89 45 ec 	movl	%eax, -20(%ebp)
10101fa8:	7c 32 	jl	50 <.text+FDC>
10101faa:	6a 07 	pushl	$7
10101fac:	58 	popl	%eax
10101fad:	33 c9 	xorl	%ecx, %ecx
10101faf:	53 	pushl	%ebx
10101fb0:	0f a2 	cpuid
10101fb2:	8b f3 	movl	%ebx, %esi
10101fb4:	5b 	popl	%ebx
10101fb5:	8d 5d d8 	leal	-40(%ebp), %ebx
10101fb8:	89 03 	movl	%eax, (%ebx)
10101fba:	89 73 04 	movl	%esi, 4(%ebx)
10101fbd:	89 4b 08 	movl	%ecx, 8(%ebx)
10101fc0:	89 53 0c 	movl	%edx, 12(%ebx)
10101fc3:	8b 45 dc 	movl	-36(%ebp), %eax
10101fc6:	a9 00 02 00 00 	testl	$512, %eax
10101fcb:	89 45 f0 	movl	%eax, -16(%ebp)
10101fce:	8b 45 fc 	movl	-4(%ebp), %eax
10101fd1:	74 09 	je	9 <.text+FDC>
10101fd3:	83 cf 02 	orl	$2, %edi
10101fd6:	89 3d f0 43 10 10 	movl	%edi, 269501424
10101fdc:	5f 	popl	%edi
10101fdd:	5e 	popl	%esi
10101fde:	a9 00 00 10 00 	testl	$1048576, %eax
10101fe3:	74 6d 	je	109 <.text+1052>
10101fe5:	83 0d 10 40 10 10 04 	orl	$4, 269500432
10101fec:	c7 05 ec 43 10 10 02 00 00 00 	movl	$2, 269501420
10101ff6:	a9 00 00 00 08 	testl	$134217728, %eax
10101ffb:	74 55 	je	85 <.text+1052>
10101ffd:	a9 00 00 00 10 	testl	$268435456, %eax
10102002:	74 4e 	je	78 <.text+1052>
10102004:	33 c9 	xorl	%ecx, %ecx
10102006:	0f 01 d0 	xgetbv
10102009:	89 45 f4 	movl	%eax, -12(%ebp)
1010200c:	89 55 f8 	movl	%edx, -8(%ebp)
1010200f:	8b 45 f4 	movl	-12(%ebp), %eax
10102012:	8b 4d f8 	movl	-8(%ebp), %ecx
10102015:	83 e0 06 	andl	$6, %eax
10102018:	33 c9 	xorl	%ecx, %ecx
1010201a:	83 f8 06 	cmpl	$6, %eax
1010201d:	75 33 	jne	51 <.text+1052>
1010201f:	85 c9 	testl	%ecx, %ecx
10102021:	75 2f 	jne	47 <.text+1052>
10102023:	a1 10 40 10 10 	movl	269500432, %eax
10102028:	83 c8 08 	orl	$8, %eax
1010202b:	c7 05 ec 43 10 10 03 00 00 00 	movl	$3, 269501420
10102035:	f6 45 f0 20 	testb	$32, -16(%ebp)
10102039:	a3 10 40 10 10 	movl	%eax, 269500432
1010203e:	74 12 	je	18 <.text+1052>
10102040:	83 c8 20 	orl	$32, %eax
10102043:	c7 05 ec 43 10 10 05 00 00 00 	movl	$5, 269501420
1010204d:	a3 10 40 10 10 	movl	%eax, 269500432
10102052:	33 c0 	xorl	%eax, %eax
10102054:	5b 	popl	%ebx
10102055:	8b e5 	movl	%ebp, %esp
10102057:	5d 	popl	%ebp
10102058:	c3 	retl
10102059:	33 c0 	xorl	%eax, %eax
1010205b:	39 05 14 40 10 10 	cmpl	%eax, 269500436
10102061:	0f 95 c0 	setne	%al
10102064:	c3 	retl
10102065:	e9 c0 00 00 00 	jmp	192 <.text+112A>
1010206a:	ff 25 44 30 10 10 	jmpl	*269496388
10102070:	ff 25 3c 30 10 10 	jmpl	*269496380
10102076:	ff 25 38 30 10 10 	jmpl	*269496376
1010207c:	ff 25 34 30 10 10 	jmpl	*269496372
10102082:	ff 25 40 30 10 10 	jmpl	*269496384
10102088:	ff 25 e0 30 10 10 	jmpl	*269496544
1010208e:	ff 25 9c 30 10 10 	jmpl	*269496476
10102094:	ff 25 54 30 10 10 	jmpl	*269496404
1010209a:	ff 25 4c 30 10 10 	jmpl	*269496396
101020a0:	ff 25 b8 30 10 10 	jmpl	*269496504
101020a6:	ff 25 b4 30 10 10 	jmpl	*269496500
101020ac:	ff 25 68 30 10 10 	jmpl	*269496424
101020b2:	ff 25 78 30 10 10 	jmpl	*269496440
101020b8:	ff 25 bc 30 10 10 	jmpl	*269496508
101020be:	ff 25 ac 30 10 10 	jmpl	*269496492
101020c4:	ff 25 a8 30 10 10 	jmpl	*269496488
101020ca:	ff 25 a4 30 10 10 	jmpl	*269496484
101020d0:	ff 25 a0 30 10 10 	jmpl	*269496480
101020d6:	ff 25 c8 30 10 10 	jmpl	*269496520
101020dc:	ff 25 98 30 10 10 	jmpl	*269496472
101020e2:	ff 25 84 30 10 10 	jmpl	*269496452
101020e8:	ff 25 7c 30 10 10 	jmpl	*269496444
101020ee:	ff 25 70 30 10 10 	jmpl	*269496432
101020f4:	ff 25 74 30 10 10 	jmpl	*269496436
101020fa:	ff 25 60 30 10 10 	jmpl	*269496416
10102100:	ff 25 58 30 10 10 	jmpl	*269496408
10102106:	ff 25 c4 30 10 10 	jmpl	*269496516
1010210c:	ff 25 b0 30 10 10 	jmpl	*269496496
10102112:	ff 25 88 30 10 10 	jmpl	*269496456
10102118:	ff 25 8c 30 10 10 	jmpl	*269496460
1010211e:	ff 25 90 30 10 10 	jmpl	*269496464
10102124:	ff 25 94 30 10 10 	jmpl	*269496468
1010212a:	ff 25 50 30 10 10 	jmpl	*269496400
10102130:	ff 25 0c 30 10 10 	jmpl	*269496332
10102136:	b0 01 	movb	$1, %al
10102138:	c3 	retl
Disassembly of section .rdata:
.rdata:
10103000:	5e 	popl	%esi
10103001:	3d 00 00 7c 3d 	cmpl	$1031536640, %eax
10103006:	00 00 	addb	%al, (%eax)
10103008:	90 	nop
10103009:	3d 00 00 a4 3d 	cmpl	$1034158080, %eax
1010300e:	00 00 	addb	%al, (%eax)
10103010:	c0 3d 00 00 da 3d 00 	sarb	$0, 1037697024
10103017:	00 4a 3e 	addb	%cl, 62(%edx)
1010301a:	00 00 	addb	%al, (%eax)
1010301c:	36 3e 00 00 	addb	%al, %ds:(%eax)
10103020:	20 3e 	andb	%bh, (%esi)
10103022:	00 00 	addb	%al, (%eax)
10103024:	06 	pushl	%es
10103025:	3e 00 00 	addb	%al, %ds:(%eax)
10103028:	f0 	lock
10103029:	3d 00 00 42 3d 	cmpl	$1027735552, %eax
1010302e:	00 00 	addb	%al, (%eax)
10103030:	00 00 	addb	%al, (%eax)
10103032:	00 00 	addb	%al, (%eax)
10103034:	00 3a 	addb	%bh, (%edx)
10103036:	00 00 	addb	%al, (%eax)
10103038:	e6 39 	outb	%al, $57
1010303a:	00 00 	addb	%al, (%eax)
1010303c:	ce 	into
1010303d:	39 00 	cmpl	%eax, (%eax)
1010303f:	00 16 	addb	%dl, (%esi)
10103041:	3a 00 	cmpb	(%eax), %al
10103043:	00 c4 	addb	%al, %ah
10103045:	39 00 	cmpl	%eax, (%eax)
10103047:	00 00 	addb	%al, (%eax)
10103049:	00 00 	addb	%al, (%eax)
1010304b:	00 b0 3a 00 00 74 	addb	%dh, 1946157114(%eax)
10103051:	3c 00 	cmpb	$0, %al
10103053:	00 a4 3a 00 00 f2 3b 	addb	%ah, 1005715456(%edx,%edi)
1010305a:	00 00 	addb	%al, (%eax)
1010305c:	00 00 	addb	%al, (%eax)
1010305e:	00 00 	addb	%al, (%eax)
10103060:	dc 3b 	fdivrl	(%ebx)
10103062:	00 00 	addb	%al, (%eax)
10103064:	00 00 	addb	%al, (%eax)
10103066:	00 00 	addb	%al, (%eax)
10103068:	dc 3a 	fdivrl	(%edx)
1010306a:	00 00 	addb	%al, (%eax)
1010306c:	00 00 	addb	%al, (%eax)
1010306e:	00 00 	addb	%al, (%eax)
10103070:	a4 	movsb	(%esi), %es:(%edi)
10103071:	3b 00 	cmpl	(%eax), %eax
10103073:	00 ae 3b 00 00 f0 	addb	%ch, -268435397(%esi)
10103079:	3a 00 	cmpb	(%eax), %al
1010307b:	00 9a 3b 00 00 9a 	addb	%bl, -1711275973(%edx)
10103081:	3a 00 	cmpb	(%eax), %al
10103083:	00 8c 3b 00 00 2e 3c 	addb	%cl, 1009647616(%ebx,%edi)
1010308a:	00 00 	addb	%al, (%eax)
1010308c:	4a 	decl	%edx
1010308d:	3c 00 	cmpb	$0, %al
1010308f:	00 58 3c 	addb	%bl, 60(%eax)
10103092:	00 00 	addb	%al, (%eax)
10103094:	68 3c 00 00 7e 	pushl	$2113929276
10103099:	3b 00 	cmpl	(%eax), %eax
1010309b:	00 92 3a 00 00 68 	addb	%dl, 1744830522(%edx)
101030a1:	3b 00 	cmpl	(%eax), %eax
101030a3:	00 5a 3b 	addb	%bl, 59(%edx)
101030a6:	00 00 	addb	%al, (%eax)
101030a8:	4e 	decl	%esi
101030a9:	3b 00 	cmpl	(%eax), %eax
101030ab:	00 2c 3b 	addb	%ch, (%ebx,%edi)
101030ae:	00 00 	addb	%al, (%eax)
101030b0:	12 3c 00 	adcb	(%eax,%eax), %bh
101030b3:	00 cc 	addb	%cl, %ah
101030b5:	3a 00 	cmpb	(%eax), %al
101030b7:	00 ba 3a 00 00 0a 	addb	%bh, 167772218(%edx)
101030bd:	3b 00 	cmpl	(%eax), %eax
101030bf:	00 00 	addb	%al, (%eax)
101030c1:	00 00 	addb	%al, (%eax)
101030c3:	00 02 	addb	%al, (%edx)
101030c5:	3c 00 	cmpb	$0, %al
101030c7:	00 70 3b 	addb	%dh, 59(%eax)
101030ca:	00 00 	addb	%al, (%eax)
101030cc:	54 	pushl	%esp
101030cd:	3a 00 	cmpb	(%eax), %al
101030cf:	00 42 3a 	addb	%al, 58(%edx)
101030d2:	00 00 	addb	%al, (%eax)
101030d4:	64 3a 00 	cmpb	%fs:(%eax), %al
101030d7:	00 5c 3a 00 	addb	%bl, (%edx,%edi)
101030db:	00 00 	addb	%al, (%eax)
101030dd:	00 00 	addb	%al, (%eax)
101030df:	00 7e 3a 	addb	%bh, 58(%esi)
101030e2:	00 00 	addb	%al, (%eax)
101030e4:	88 3a 	movb	%bh, (%edx)
101030e6:	00 00 	addb	%al, (%eax)
101030e8:	00 00 	addb	%al, (%eax)
101030ea:	00 00 	addb	%al, (%eax)
101030ec:	c3 	retl
101030ed:	1b 10 	sbbl	(%eax), %edx
101030ef:	10 00 	adcb	%al, (%eax)
101030f1:	00 00 	addb	%al, (%eax)
101030f3:	00 c0 	addb	%al, %al
101030f5:	14 10 	adcb	$16, %al
101030f7:	10 00 	adcb	%al, (%eax)
101030f9:	00 00 	addb	%al, (%eax)
101030fb:	00 00 	addb	%al, (%eax)
101030fd:	00 00 	addb	%al, (%eax)
101030ff:	00 14 14 	addb	%dl, (%esp,%edx)
10103102:	10 10 	adcb	%dl, (%eax)
10103104:	b8 14 10 10 00 	movl	$1052692, %eax
10103109:	00 00 	addb	%al, (%eax)
1010310b:	00 00 	addb	%al, (%eax)
1010310d:	00 00 	addb	%al, (%eax)
1010310f:	00 00 	addb	%al, (%eax)
10103111:	00 00 	addb	%al, (%eax)
10103113:	00 00 	addb	%al, (%eax)
10103115:	00 00 	addb	%al, (%eax)
10103117:	00 00 	addb	%al, (%eax)
10103119:	00 00 	addb	%al, (%eax)
1010311b:	00 00 	addb	%al, (%eax)
1010311d:	00 00 	addb	%al, (%eax)
1010311f:	00 0a 	addb	%cl, (%edx)
10103121:	41 	incl	%ecx
10103122:	70 72 	jo	114 <.rdata+196>
10103124:	6f 	outsl	(%esi), %dx
10103125:	62 61 73 	bound	115(%ecx), %esp
10103128:	74 65 	je	101 <.rdata+18F>
1010312a:	20 4e 69 	andb	%cl, 105(%esi)
1010312d:	76 65 	jbe	101 <.rdata+194>
1010312f:	6c 	insb	%dx, %es:(%edi)
10103130:	20 31 	andb	%dh, (%ecx)
10103132:	31 0a 	xorl	%ecx, (%edx)
10103134:	00 00 	addb	%al, (%eax)
10103136:	00 00 	addb	%al, (%eax)
10103138:	0a 41 20 	orb	32(%ecx), %al
1010313b:	72 65 	jb	101 <.rdata+1A2>
1010313d:	70 61 	jo	97 <.rdata+1A0>
1010313f:	73 61 	jae	97 <.rdata+1A2>
10103141:	72 72 	jb	114 <.rdata+1B5>
10103143:	72 72 	jb	114 <.rdata+1B7>
10103145:	20 2e 	andb	%ch, (%esi)
10103147:	2e 2e 20 0a 	andb	%cl, %cs:(%edx)
1010314b:	00 72 62 	addb	%dh, 98(%edx)
1010314e:	00 00 	addb	%al, (%eax)
10103150:	43 	incl	%ebx
10103151:	3a 5c 6c 69 	cmpb	105(%esp,%ebp,2), %bl
10103155:	73 74 	jae	116 <.rdata+1CB>
10103157:	61 	popal
10103158:	2e 74 78 	je	120 <.rdata+1D3>
1010315b:	74 00 	je	0 <.rdata+15D>
1010315d:	00 00 	addb	%al, (%eax)
1010315f:	00 4e 6f 	addb	%cl, 111(%esi)
10103162:	20 73 65 	andb	%dh, 101(%ebx)
10103165:	20 70 75 	andb	%dh, 117(%eax)
10103168:	65 64 65 20 6c 65 65 	andb	%ch, %gs:101(%ebp)
1010316f:	72 20 	jb	32 <.rdata+191>
10103171:	6c 	insb	%dx, %es:(%edi)
10103172:	61 	popal
10103173:	20 6c 69 73 	andb	%ch, 115(%ecx,%ebp,2)
10103177:	74 61 	je	97 <.rdata+1DA>
10103179:	20 64 65 20 	andb	%ah, 32(%ebp)
1010317d:	61 	popal
1010317e:	6c 	insb	%dx, %es:(%edi)
1010317f:	75 6d 	jne	109 <.rdata+1EE>
10103181:	6e 	outsb	(%esi), %dx
10103182:	6f 	outsl	(%esi), %dx
10103183:	73 20 	jae	32 <.rdata+1A5>
10103185:	62 79 65 	bound	101(%ecx), %edi
10103188:	20 62 79 	andb	%ah, 121(%edx)
1010318b:	65 20 0a 	andb	%cl, %gs:(%edx)
1010318e:	00 00 	addb	%al, (%eax)
10103190:	20 00 	andb	%al, (%eax)
10103192:	00 00 	addb	%al, (%eax)
10103194:	6e 	outsb	(%esi), %dx
10103195:	6f 	outsl	(%esi), %dx
10103196:	6d 	insl	%dx, %es:(%edi)
10103197:	62 72 65 	bound	101(%edx), %esi
1010319a:	20 3d 20 25 73 0a 	andb	%bh, 175318304
101031a0:	00 00 	addb	%al, (%eax)
101031a2:	00 00 	addb	%al, (%eax)
101031a4:	20 00 	andb	%al, (%eax)
101031a6:	00 00 	addb	%al, (%eax)
101031a8:	6e 	outsb	(%esi), %dx
101031a9:	6f 	outsl	(%esi), %dx
101031aa:	6d 	insl	%dx, %es:(%edi)
101031ab:	62 72 65 	bound	101(%edx), %esi
101031ae:	20 3d 20 25 73 0a 	andb	%bh, 175318304
101031b4:	00 00 	addb	%al, (%eax)
101031b6:	00 00 	addb	%al, (%eax)
101031b8:	63 61 6e 	arpl	%sp, 110(%ecx)
101031bb:	74 69 	je	105 <.rdata+226>
101031bd:	64 61 	popal
101031bf:	64 20 64 65 20 	andb	%ah, %fs:32(%ebp)
101031c4:	61 	popal
101031c5:	6c 	insb	%dx, %es:(%edi)
101031c6:	75 6d 	jne	109 <.rdata+235>
101031c8:	6e 	outsb	(%esi), %dx
101031c9:	6f 	outsl	(%esi), %dx
101031ca:	73 20 	jae	32 <.rdata+1EC>
101031cc:	25 64 0a 00 0c 	andl	$201329252, %eax
101031d1:	33 10 	xorl	(%eax), %edx
101031d3:	10 ee 	adcb	%ch, %dh
101031d5:	16 	pushl	%ss
101031d6:	10 10 	adcb	%dl, (%eax)
101031d8:	55 	pushl	%ebp
101031d9:	17 	popl	%ss
101031da:	10 10 	adcb	%dl, (%eax)
101031dc:	55 	pushl	%ebp
101031dd:	6e 	outsb	(%esi), %dx
101031de:	6b 6e 6f 77 	imull	$119, 111(%esi), %ebp
101031e2:	6e 	outsb	(%esi), %dx
101031e3:	20 65 78 	andb	%ah, 120(%ebp)
101031e6:	63 65 70 	arpl	%sp, 112(%ebp)
101031e9:	74 69 	je	105 <.rdata+254>
101031eb:	6f 	outsl	(%esi), %dx
101031ec:	6e 	outsb	(%esi), %dx
101031ed:	00 00 	addb	%al, (%eax)
101031ef:	00 54 33 10 	addb	%dl, 16(%ebx,%esi)
101031f3:	10 ee 	adcb	%ch, %dh
101031f5:	16 	pushl	%ss
101031f6:	10 10 	adcb	%dl, (%eax)
101031f8:	55 	pushl	%ebp
101031f9:	17 	popl	%ss
101031fa:	10 10 	adcb	%dl, (%eax)
101031fc:	62 61 64 	bound	100(%ecx), %esp
101031ff:	20 61 6c 	andb	%ah, 108(%ecx)
10103202:	6c 	insb	%dx, %es:(%edi)
10103203:	6f 	outsl	(%esi), %dx
10103204:	63 61 74 	arpl	%sp, 116(%ecx)
10103207:	69 6f 6e 00 00 a0 33 	imull	$866123776, 110(%edi), %ebp
1010320e:	10 10 	adcb	%dl, (%eax)
10103210:	ee 	outb	%al, %dx
10103211:	16 	pushl	%ss
10103212:	10 10 	adcb	%dl, (%eax)
10103214:	55 	pushl	%ebp
10103215:	17 	popl	%ss
10103216:	10 10 	adcb	%dl, (%eax)
10103218:	62 61 64 	bound	100(%ecx), %esp
1010321b:	20 61 72 	andb	%ah, 114(%ecx)
1010321e:	72 61 	jb	97 <.rdata+281>
10103220:	79 20 	jns	32 <.rdata+242>
10103222:	6e 	outsb	(%esi), %dx
10103223:	65 77 20 	ja	32 <.rdata+246>
10103226:	6c 	insb	%dx, %es:(%edi)
10103227:	65 6e 	outsb	%gs:(%esi), %dx
10103229:	67 74 68 	je	104 <.rdata+294>
1010322c:	00 00 	addb	%al, (%eax)
1010322e:	00 00 	addb	%al, (%eax)
10103230:	98 	cwtl
10103231:	40 	incl	%eax
10103232:	10 10 	adcb	%dl, (%eax)
10103234:	e8 40 10 10 f0 	calll	-267382720
10103239:	33 10 	xorl	(%eax), %edx
1010323b:	10 9c 1e 10 10 00 00 	adcb	%bl, 4112(%esi,%ebx)
10103242:	00 00 	addb	%al, (%eax)
10103244:	91 	xchgl	%ecx, %eax
10103245:	f3 	rep
10103246:	df 58 00 	fistps	(%eax)
10103249:	00 00 	addb	%al, (%eax)
1010324b:	00 02 	addb	%al, (%edx)
1010324d:	00 00 	addb	%al, (%eax)
1010324f:	00 83 00 00 00 38 	addb	%al, 939524096(%ebx)
10103255:	34 00 	xorb	$0, %al
10103257:	00 38 	addb	%bh, (%eax)
10103259:	1a 00 	sbbb	(%eax), %al
1010325b:	00 00 	addb	%al, (%eax)
1010325d:	00 00 	addb	%al, (%eax)
1010325f:	00 91 f3 df 58 00 	addb	%dl, 5824499(%ecx)
10103265:	00 00 	addb	%al, (%eax)
10103267:	00 0c 00 	addb	%cl, (%eax,%eax)
1010326a:	00 00 	addb	%al, (%eax)
1010326c:	14 00 	adcb	$0, %al
1010326e:	00 00 	addb	%al, (%eax)
10103270:	bc 34 00 00 bc 	movl	$3154116660, %esp
10103275:	1a 00 	sbbb	(%eax), %al
10103277:	00 00 	addb	%al, (%eax)
10103279:	00 00 	addb	%al, (%eax)
1010327b:	00 91 f3 df 58 00 	addb	%dl, 5824499(%ecx)
10103281:	00 00 	addb	%al, (%eax)
10103283:	00 0d 00 00 00 74 	addb	%cl, 1946157056
10103289:	02 00 	addb	(%eax), %al
1010328b:	00 d0 	addb	%dl, %al
1010328d:	34 00 	xorb	$0, %al
1010328f:	00 d0 	addb	%dl, %al
10103291:	1a 00 	sbbb	(%eax), %al
10103293:	00 00 	addb	%al, (%eax)
10103295:	00 00 	addb	%al, (%eax)
10103297:	00 91 f3 df 58 00 	addb	%dl, 5824499(%ecx)
1010329d:	00 00 	addb	%al, (%eax)
1010329f:	00 0e 	addb	%cl, (%esi)
101032a1:	00 00 	addb	%al, (%eax)
101032a3:	00 00 	addb	%al, (%eax)
101032a5:	00 00 	addb	%al, (%eax)
101032a7:	00 00 	addb	%al, (%eax)
101032a9:	00 00 	addb	%al, (%eax)
101032ab:	00 00 	addb	%al, (%eax)
101032ad:	00 00 	addb	%al, (%eax)
101032af:	00 5c 00 00 	addb	%bl, (%eax,%eax)
101032b3:	00 00 	addb	%al, (%eax)
101032b5:	00 00 	addb	%al, (%eax)
101032b7:	00 00 	addb	%al, (%eax)
101032b9:	00 00 	addb	%al, (%eax)
101032bb:	00 00 	addb	%al, (%eax)
101032bd:	00 00 	addb	%al, (%eax)
101032bf:	00 00 	addb	%al, (%eax)
101032c1:	00 00 	addb	%al, (%eax)
101032c3:	00 00 	addb	%al, (%eax)
101032c5:	00 00 	addb	%al, (%eax)
101032c7:	00 00 	addb	%al, (%eax)
101032c9:	00 00 	addb	%al, (%eax)
101032cb:	00 00 	addb	%al, (%eax)
101032cd:	00 00 	addb	%al, (%eax)
101032cf:	00 00 	addb	%al, (%eax)
101032d1:	00 00 	addb	%al, (%eax)
101032d3:	00 00 	addb	%al, (%eax)
101032d5:	00 00 	addb	%al, (%eax)
101032d7:	00 00 	addb	%al, (%eax)
101032d9:	00 00 	addb	%al, (%eax)
101032db:	00 00 	addb	%al, (%eax)
101032dd:	00 00 	addb	%al, (%eax)
101032df:	00 00 	addb	%al, (%eax)
101032e1:	00 00 	addb	%al, (%eax)
101032e3:	00 00 	addb	%al, (%eax)
101032e5:	00 00 	addb	%al, (%eax)
101032e7:	00 00 	addb	%al, (%eax)
101032e9:	00 00 	addb	%al, (%eax)
101032eb:	00 04 40 	addb	%al, (%eax,%eax,2)
101032ee:	10 10 	adcb	%dl, (%eax)
101032f0:	00 00 	addb	%al, (%eax)
101032f2:	00 00 	addb	%al, (%eax)
101032f4:	00 00 	addb	%al, (%eax)
101032f6:	00 00 	addb	%al, (%eax)
101032f8:	ec 	inb	%dx, %al
101032f9:	30 10 	xorb	%dl, (%eax)
101032fb:	10 00 	adcb	%al, (%eax)
101032fd:	00 00 	addb	%al, (%eax)
101032ff:	00 00 	addb	%al, (%eax)
10103301:	00 00 	addb	%al, (%eax)
10103303:	00 00 	addb	%al, (%eax)
10103305:	00 00 	addb	%al, (%eax)
10103307:	00 00 	addb	%al, (%eax)
10103309:	01 00 	addl	%eax, (%eax)
1010330b:	00 00 	addb	%al, (%eax)
1010330d:	00 00 	addb	%al, (%eax)
1010330f:	00 00 	addb	%al, (%eax)
10103311:	00 00 	addb	%al, (%eax)
10103313:	00 00 	addb	%al, (%eax)
10103315:	00 00 	addb	%al, (%eax)
10103317:	00 34 40 	addb	%dh, (%eax,%eax,2)
1010331a:	10 10 	adcb	%dl, (%eax)
1010331c:	20 33 	andb	%dh, (%ebx)
1010331e:	10 10 	adcb	%dl, (%eax)
10103320:	00 00 	addb	%al, (%eax)
10103322:	00 00 	addb	%al, (%eax)
10103324:	00 00 	addb	%al, (%eax)
10103326:	00 00 	addb	%al, (%eax)
10103328:	01 00 	addl	%eax, (%eax)
1010332a:	00 00 	addb	%al, (%eax)
1010332c:	30 33 	xorb	%dh, (%ebx)
1010332e:	10 10 	adcb	%dl, (%eax)
10103330:	38 33 	cmpb	%dh, (%ebx)
10103332:	10 10 	adcb	%dl, (%eax)
10103334:	00 00 	addb	%al, (%eax)
10103336:	00 00 	addb	%al, (%eax)
10103338:	34 40 	xorb	$64, %al
1010333a:	10 10 	adcb	%dl, (%eax)
1010333c:	00 00 	addb	%al, (%eax)
1010333e:	00 00 	addb	%al, (%eax)
10103340:	00 00 	addb	%al, (%eax)
10103342:	00 00 	addb	%al, (%eax)
10103348:	00 00 	addb	%al, (%eax)
1010334a:	00 00 	addb	%al, (%eax)
1010334c:	40 	incl	%eax
1010334d:	00 00 	addb	%al, (%eax)
1010334f:	00 20 	addb	%ah, (%eax)
10103351:	33 10 	xorl	(%eax), %edx
10103353:	10 00 	adcb	%al, (%eax)
10103355:	00 00 	addb	%al, (%eax)
10103357:	00 00 	addb	%al, (%eax)
10103359:	00 00 	addb	%al, (%eax)
1010335b:	00 00 	addb	%al, (%eax)
1010335d:	00 00 	addb	%al, (%eax)
1010335f:	00 18 	addb	%bl, (%eax)
10103361:	40 	incl	%eax
10103362:	10 10 	adcb	%dl, (%eax)
10103364:	68 33 10 10 00 	pushl	$1052723
10103369:	00 00 	addb	%al, (%eax)
1010336b:	00 00 	addb	%al, (%eax)
1010336d:	00 00 	addb	%al, (%eax)
1010336f:	00 02 	addb	%al, (%edx)
10103371:	00 00 	addb	%al, (%eax)
10103373:	00 78 33 	addb	%bh, 51(%eax)
10103376:	10 10 	adcb	%dl, (%eax)
10103378:	84 33 	testb	(%ebx), %dh
1010337a:	10 10 	adcb	%dl, (%eax)
1010337c:	38 33 	cmpb	%dh, (%ebx)
1010337e:	10 10 	adcb	%dl, (%eax)
10103380:	00 00 	addb	%al, (%eax)
10103382:	00 00 	addb	%al, (%eax)
10103384:	18 40 10 	sbbb	%al, 16(%eax)
10103387:	10 01 	adcb	%al, (%ecx)
10103389:	00 00 	addb	%al, (%eax)
1010338b:	00 00 	addb	%al, (%eax)
1010338d:	00 00 	addb	%al, (%eax)
1010338f:	00 ff 	addb	%bh, %bh
10103393:	ff 00 	incl	(%eax)
10103395:	00 00 	addb	%al, (%eax)
10103397:	00 40 00 	addb	%al, (%eax)
1010339a:	00 00 	addb	%al, (%eax)
1010339c:	68 33 10 10 00 	pushl	$1052723
101033a1:	00 00 	addb	%al, (%eax)
101033a3:	00 00 	addb	%al, (%eax)
101033a5:	00 00 	addb	%al, (%eax)
101033a7:	00 00 	addb	%al, (%eax)
101033a9:	00 00 	addb	%al, (%eax)
101033ab:	00 50 40 	addb	%dl, 64(%eax)
101033ae:	10 10 	adcb	%dl, (%eax)
101033b0:	b4 33 	movb	$51, %ah
101033b2:	10 10 	adcb	%dl, (%eax)
101033b4:	00 00 	addb	%al, (%eax)
101033b6:	00 00 	addb	%al, (%eax)
101033b8:	00 00 	addb	%al, (%eax)
101033ba:	00 00 	addb	%al, (%eax)
101033bc:	03 00 	addl	(%eax), %eax
101033be:	00 00 	addb	%al, (%eax)
101033c0:	c4 33 	lesl	(%ebx), %esi
101033c2:	10 10 	adcb	%dl, (%eax)
101033c4:	d4 33 	aam	$51
101033c6:	10 10 	adcb	%dl, (%eax)
101033c8:	84 33 	testb	(%ebx), %dh
101033ca:	10 10 	adcb	%dl, (%eax)
101033cc:	38 33 	cmpb	%dh, (%ebx)
101033ce:	10 10 	adcb	%dl, (%eax)
101033d0:	00 00 	addb	%al, (%eax)
101033d2:	00 00 	addb	%al, (%eax)
101033d4:	50 	pushl	%eax
101033d5:	40 	incl	%eax
101033d6:	10 10 	adcb	%dl, (%eax)
101033d8:	02 00 	addb	(%eax), %al
101033da:	00 00 	addb	%al, (%eax)
101033dc:	00 00 	addb	%al, (%eax)
101033de:	00 00 	addb	%al, (%eax)
101033e4:	00 00 	addb	%al, (%eax)
101033e6:	00 00 	addb	%al, (%eax)
101033e8:	40 	incl	%eax
101033e9:	00 00 	addb	%al, (%eax)
101033eb:	00 b4 33 10 10 00 00 	addb	%dh, 4112(%ebx,%esi)
101033f2:	00 00 	addb	%al, (%eax)
101033f4:	00 00 	addb	%al, (%eax)
101033f6:	00 00 	addb	%al, (%eax)
101033f8:	00 00 	addb	%al, (%eax)
101033fa:	00 00 	addb	%al, (%eax)
101033fc:	78 40 	js	64 <.rdata+43E>
101033fe:	10 10 	adcb	%dl, (%eax)
10103400:	04 34 	addb	$52, %al
10103402:	10 10 	adcb	%dl, (%eax)
10103404:	00 00 	addb	%al, (%eax)
10103406:	00 00 	addb	%al, (%eax)
10103408:	00 00 	addb	%al, (%eax)
1010340a:	00 00 	addb	%al, (%eax)
1010340c:	01 00 	addl	%eax, (%eax)
1010340e:	00 00 	addb	%al, (%eax)
10103410:	14 34 	adcb	$52, %al
10103412:	10 10 	adcb	%dl, (%eax)
10103414:	1c 34 	sbbb	$52, %al
10103416:	10 10 	adcb	%dl, (%eax)
10103418:	00 00 	addb	%al, (%eax)
1010341a:	00 00 	addb	%al, (%eax)
1010341c:	78 40 	js	64 <.rdata+45E>
1010341e:	10 10 	adcb	%dl, (%eax)
10103420:	00 00 	addb	%al, (%eax)
10103422:	00 00 	addb	%al, (%eax)
10103424:	00 00 	addb	%al, (%eax)
10103426:	00 00 	addb	%al, (%eax)
1010342c:	00 00 	addb	%al, (%eax)
1010342e:	00 00 	addb	%al, (%eax)
10103430:	40 	incl	%eax
10103431:	00 00 	addb	%al, (%eax)
10103433:	00 04 34 	addb	%al, (%esp,%esi)
10103436:	10 10 	adcb	%dl, (%eax)
10103438:	52 	pushl	%edx
10103439:	53 	pushl	%ebx
1010343a:	44 	incl	%esp
1010343b:	53 	pushl	%ebx
1010343c:	63 c1 	arpl	%ax, %cx
1010343e:	72 70 	jb	112 <.rdata+4B0>
10103440:	26 a7 	cmpsl	%es:(%edi), %es:(%esi)
10103442:	b7 48 	movb	$72, %bh
10103444:	b9 84 0f 09 8d 	movl	$2366181252, %ecx
10103449:	4a 	decl	%edx
1010344a:	7b 6a 	jnp	106 <.rdata+4B6>
1010344c:	18 00 	sbbb	%al, (%eax)
1010344e:	00 00 	addb	%al, (%eax)
10103450:	43 	incl	%ebx
10103451:	3a 5c 55 73 	cmpb	115(%ebp,%edx,2), %bl
10103455:	65 72 73 	jb	115 <.rdata+4CB>
10103458:	5c 	popl	%esp
10103459:	72 69 	jb	105 <.rdata+4C4>
1010345b:	63 6e 61 	arpl	%bp, 97(%esi)
1010345e:	5c 	popl	%esp
1010345f:	44 	incl	%esp
10103460:	6f 	outsl	(%esi), %dx
10103461:	63 75 6d 	arpl	%si, 109(%ebp)
10103464:	65 6e 	outsb	%gs:(%esi), %dx
10103466:	74 73 	je	115 <.rdata+4DB>
10103468:	5c 	popl	%esp
10103469:	56 	pushl	%esi
1010346a:	69 73 75 61 6c 20 53 	imull	$1394633825, 117(%ebx), %esi
10103471:	74 75 	je	117 <.rdata+4E8>
10103473:	64 69 6f 20 32 30 31 35 	imull	$892416050, %fs:32(%edi), %ebp
1010347b:	5c 	popl	%esp
1010347c:	50 	pushl	%eax
1010347d:	72 6f 	jb	111 <.rdata+4EE>
1010347f:	6a 65 	pushl	$101
10103481:	63 74 73 5c 	arpl	%si, 92(%ebx,%esi,2)
10103485:	43 	incl	%ebx
10103486:	6f 	outsl	(%esi), %dx
10103487:	6e 	outsb	(%esi), %dx
10103488:	73 6f 	jae	111 <.rdata+4F9>
1010348a:	6c 	insb	%dx, %es:(%edi)
1010348b:	65 41 	incl	%ecx
1010348d:	70 70 	jo	112 <.rdata+4FF>
1010348f:	6c 	insb	%dx, %es:(%edi)
10103490:	69 63 61 74 69 6f 6e 	imull	$1852795252, 97(%ebx), %esp
10103497:	35 31 5c 52 65 	xorl	$1699896369, %eax
1010349c:	6c 	insb	%dx, %es:(%edi)
1010349d:	65 61 	popal
1010349f:	73 65 	jae	101 <.rdata+506>
101034a1:	5c 	popl	%esp
101034a2:	43 	incl	%ebx
101034a3:	6f 	outsl	(%esi), %dx
101034a4:	6e 	outsb	(%esi), %dx
101034a5:	73 6f 	jae	111 <.rdata+516>
101034a7:	6c 	insb	%dx, %es:(%edi)
101034a8:	65 41 	incl	%ecx
101034aa:	70 70 	jo	112 <.rdata+51C>
101034ac:	6c 	insb	%dx, %es:(%edi)
101034ad:	69 63 61 74 69 6f 6e 	imull	$1852795252, 97(%ebx), %esp
101034b4:	35 31 2e 70 64 	xorl	$1685073457, %eax
101034b9:	62 00 	bound	(%eax), %eax
101034bb:	00 00 	addb	%al, (%eax)
101034bd:	00 00 	addb	%al, (%eax)
101034bf:	00 26 	addb	%ah, (%esi)
101034c1:	00 00 	addb	%al, (%eax)
101034c3:	00 26 	addb	%ah, (%esi)
101034c5:	00 00 	addb	%al, (%eax)
101034c7:	00 00 	addb	%al, (%eax)
101034c9:	00 00 	addb	%al, (%eax)
101034cb:	00 24 00 	addb	%ah, (%eax,%eax)
101034ce:	00 00 	addb	%al, (%eax)
101034d0:	47 	incl	%edi
101034d1:	43 	incl	%ebx
101034d2:	54 	pushl	%esp
101034d3:	4c 	decl	%esp
101034d4:	00 10 	addb	%dl, (%eax)
101034d6:	00 00 	addb	%al, (%eax)
101034d8:	39 11 	cmpl	%edx, (%ecx)
101034da:	00 00 	addb	%al, (%eax)
101034dc:	2e 74 65 	je	101 <.rdata+544>
101034df:	78 74 	js	116 <.rdata+555>
101034e1:	24 6d 	andb	$109, %al
101034e3:	6e 	outsb	(%esi), %dx
101034e4:	00 00 	addb	%al, (%eax)
101034e6:	00 00 	addb	%al, (%eax)
101034e8:	00 30 	addb	%dh, (%eax)
101034ea:	00 00 	addb	%al, (%eax)
101034ec:	ec 	inb	%dx, %al
101034ed:	00 00 	addb	%al, (%eax)
101034ef:	00 2e 	addb	%ch, (%esi)
101034f1:	69 64 61 74 61 24 35 00 	imull	$3482721, 116(%ecx), %esp
101034f9:	00 00 	addb	%al, (%eax)
101034fb:	00 ec 	addb	%ch, %ah
101034fd:	30 00 	xorb	%al, (%eax)
101034ff:	00 04 00 	addb	%al, (%eax,%eax)
10103502:	00 00 	addb	%al, (%eax)
10103504:	2e 30 30 	xorb	%dh, %cs:(%eax)
10103507:	63 66 67 	arpl	%sp, 103(%esi)
1010350a:	00 00 	addb	%al, (%eax)
1010350c:	f0 	lock
1010350d:	30 00 	xorb	%al, (%eax)
1010350f:	00 04 00 	addb	%al, (%eax,%eax)
10103512:	00 00 	addb	%al, (%eax)
10103514:	2e 43 	incl	%ebx
10103516:	52 	pushl	%edx
10103517:	54 	pushl	%esp
10103518:	24 58 	andb	$88, %al
1010351a:	43 	incl	%ebx
1010351b:	41 	incl	%ecx
1010351c:	00 00 	addb	%al, (%eax)
1010351e:	00 00 	addb	%al, (%eax)
10103520:	f4 	hlt
10103521:	30 00 	xorb	%al, (%eax)
10103523:	00 04 00 	addb	%al, (%eax,%eax)
10103526:	00 00 	addb	%al, (%eax)
10103528:	2e 43 	incl	%ebx
1010352a:	52 	pushl	%edx
1010352b:	54 	pushl	%esp
1010352c:	24 58 	andb	$88, %al
1010352e:	43 	incl	%ebx
1010352f:	41 	incl	%ecx
10103530:	41 	incl	%ecx
10103531:	00 00 	addb	%al, (%eax)
10103533:	00 f8 	addb	%bh, %al
10103535:	30 00 	xorb	%al, (%eax)
10103537:	00 04 00 	addb	%al, (%eax,%eax)
1010353a:	00 00 	addb	%al, (%eax)
1010353c:	2e 43 	incl	%ebx
1010353e:	52 	pushl	%edx
1010353f:	54 	pushl	%esp
10103540:	24 58 	andb	$88, %al
10103542:	43 	incl	%ebx
10103543:	5a 	popl	%edx
10103544:	00 00 	addb	%al, (%eax)
10103546:	00 00 	addb	%al, (%eax)
10103548:	fc 	cld
10103549:	30 00 	xorb	%al, (%eax)
1010354b:	00 04 00 	addb	%al, (%eax,%eax)
1010354e:	00 00 	addb	%al, (%eax)
10103550:	2e 43 	incl	%ebx
10103552:	52 	pushl	%edx
10103553:	54 	pushl	%esp
10103554:	24 58 	andb	$88, %al
10103556:	49 	decl	%ecx
10103557:	41 	incl	%ecx
10103558:	00 00 	addb	%al, (%eax)
1010355a:	00 00 	addb	%al, (%eax)
1010355c:	00 31 	addb	%dh, (%ecx)
1010355e:	00 00 	addb	%al, (%eax)
10103560:	04 00 	addb	$0, %al
10103562:	00 00 	addb	%al, (%eax)
10103564:	2e 43 	incl	%ebx
10103566:	52 	pushl	%edx
10103567:	54 	pushl	%esp
10103568:	24 58 	andb	$88, %al
1010356a:	49 	decl	%ecx
1010356b:	41 	incl	%ecx
1010356c:	41 	incl	%ecx
1010356d:	00 00 	addb	%al, (%eax)
1010356f:	00 04 31 	addb	%al, (%ecx,%esi)
10103572:	00 00 	addb	%al, (%eax)
10103574:	04 00 	addb	$0, %al
10103576:	00 00 	addb	%al, (%eax)
10103578:	2e 43 	incl	%ebx
1010357a:	52 	pushl	%edx
1010357b:	54 	pushl	%esp
1010357c:	24 58 	andb	$88, %al
1010357e:	49 	decl	%ecx
1010357f:	41 	incl	%ecx
10103580:	43 	incl	%ebx
10103581:	00 00 	addb	%al, (%eax)
10103583:	00 08 	addb	%cl, (%eax)
10103585:	31 00 	xorl	%eax, (%eax)
10103587:	00 04 00 	addb	%al, (%eax,%eax)
1010358a:	00 00 	addb	%al, (%eax)
1010358c:	2e 43 	incl	%ebx
1010358e:	52 	pushl	%edx
1010358f:	54 	pushl	%esp
10103590:	24 58 	andb	$88, %al
10103592:	49 	decl	%ecx
10103593:	5a 	popl	%edx
10103594:	00 00 	addb	%al, (%eax)
10103596:	00 00 	addb	%al, (%eax)
10103598:	0c 31 	orb	$49, %al
1010359a:	00 00 	addb	%al, (%eax)
1010359c:	04 00 	addb	$0, %al
1010359e:	00 00 	addb	%al, (%eax)
101035a0:	2e 43 	incl	%ebx
101035a2:	52 	pushl	%edx
101035a3:	54 	pushl	%esp
101035a4:	24 58 	andb	$88, %al
101035a6:	50 	pushl	%eax
101035a7:	41 	incl	%ecx
101035a8:	00 00 	addb	%al, (%eax)
101035aa:	00 00 	addb	%al, (%eax)
101035ac:	10 31 	adcb	%dh, (%ecx)
101035ae:	00 00 	addb	%al, (%eax)
101035b0:	04 00 	addb	$0, %al
101035b2:	00 00 	addb	%al, (%eax)
101035b4:	2e 43 	incl	%ebx
101035b6:	52 	pushl	%edx
101035b7:	54 	pushl	%esp
101035b8:	24 58 	andb	$88, %al
101035ba:	50 	pushl	%eax
101035bb:	5a 	popl	%edx
101035bc:	00 00 	addb	%al, (%eax)
101035be:	00 00 	addb	%al, (%eax)
101035c0:	14 31 	adcb	$49, %al
101035c2:	00 00 	addb	%al, (%eax)
101035c4:	04 00 	addb	$0, %al
101035c6:	00 00 	addb	%al, (%eax)
101035c8:	2e 43 	incl	%ebx
101035ca:	52 	pushl	%edx
101035cb:	54 	pushl	%esp
101035cc:	24 58 	andb	$88, %al
101035ce:	54 	pushl	%esp
101035cf:	41 	incl	%ecx
101035d0:	00 00 	addb	%al, (%eax)
101035d2:	00 00 	addb	%al, (%eax)
101035d4:	18 31 	sbbb	%dh, (%ecx)
101035d6:	00 00 	addb	%al, (%eax)
101035d8:	08 00 	orb	%al, (%eax)
101035da:	00 00 	addb	%al, (%eax)
101035dc:	2e 43 	incl	%ebx
101035de:	52 	pushl	%edx
101035df:	54 	pushl	%esp
101035e0:	24 58 	andb	$88, %al
101035e2:	54 	pushl	%esp
101035e3:	5a 	popl	%edx
101035e4:	00 00 	addb	%al, (%eax)
101035e6:	00 00 	addb	%al, (%eax)
101035e8:	20 31 	andb	%dh, (%ecx)
101035ea:	00 00 	addb	%al, (%eax)
101035ec:	ec 	inb	%dx, %al
101035ed:	01 00 	addl	%eax, (%eax)
101035ef:	00 2e 	addb	%ch, (%esi)
101035f1:	72 64 	jb	100 <.rdata+657>
101035f3:	61 	popal
101035f4:	74 61 	je	97 <.rdata+657>
101035f6:	00 00 	addb	%al, (%eax)
101035f8:	0c 33 	orb	$51, %al
101035fa:	00 00 	addb	%al, (%eax)
101035fc:	2c 01 	subb	$1, %al
101035fe:	00 00 	addb	%al, (%eax)
10103600:	2e 72 64 	jb	100 <.rdata+667>
10103603:	61 	popal
10103604:	74 61 	je	97 <.rdata+667>
10103606:	24 72 	andb	$114, %al
10103608:	00 00 	addb	%al, (%eax)
1010360a:	00 00 	addb	%al, (%eax)
1010360c:	38 34 00 	cmpb	%dh, (%eax,%eax)
1010360f:	00 0c 03 	addb	%cl, (%ebx,%eax)
10103612:	00 00 	addb	%al, (%eax)
10103614:	2e 72 64 	jb	100 <.rdata+67B>
10103617:	61 	popal
10103618:	74 61 	je	97 <.rdata+67B>
1010361a:	24 7a 	andb	$122, %al
1010361c:	7a 7a 	jp	122 <.rdata+698>
1010361e:	64 62 67 00 	bound	%fs:(%edi), %esp
10103622:	00 00 	addb	%al, (%eax)
10103624:	44 	incl	%esp
10103625:	37 	aaa
10103626:	00 00 	addb	%al, (%eax)
10103628:	04 00 	addb	$0, %al
1010362a:	00 00 	addb	%al, (%eax)
1010362c:	2e 72 74 	jb	116 <.rdata+6A3>
1010362f:	63 24 49 	arpl	%sp, (%ecx,%ecx,2)
10103632:	41 	incl	%ecx
10103633:	41 	incl	%ecx
10103634:	00 00 	addb	%al, (%eax)
10103636:	00 00 	addb	%al, (%eax)
10103638:	48 	decl	%eax
10103639:	37 	aaa
1010363a:	00 00 	addb	%al, (%eax)
1010363c:	04 00 	addb	$0, %al
1010363e:	00 00 	addb	%al, (%eax)
10103640:	2e 72 74 	jb	116 <.rdata+6B7>
10103643:	63 24 49 	arpl	%sp, (%ecx,%ecx,2)
10103646:	5a 	popl	%edx
10103647:	5a 	popl	%edx
10103648:	00 00 	addb	%al, (%eax)
1010364a:	00 00 	addb	%al, (%eax)
1010364c:	4c 	decl	%esp
1010364d:	37 	aaa
1010364e:	00 00 	addb	%al, (%eax)
10103650:	04 00 	addb	$0, %al
10103652:	00 00 	addb	%al, (%eax)
10103654:	2e 72 74 	jb	116 <.rdata+6CB>
10103657:	63 24 54 	arpl	%sp, (%esp,%edx,2)
1010365a:	41 	incl	%ecx
1010365b:	41 	incl	%ecx
1010365c:	00 00 	addb	%al, (%eax)
1010365e:	00 00 	addb	%al, (%eax)
10103660:	50 	pushl	%eax
10103661:	37 	aaa
10103662:	00 00 	addb	%al, (%eax)
10103664:	08 00 	orb	%al, (%eax)
10103666:	00 00 	addb	%al, (%eax)
10103668:	2e 72 74 	jb	116 <.rdata+6DF>
1010366b:	63 24 54 	arpl	%sp, (%esp,%edx,2)
1010366e:	5a 	popl	%edx
1010366f:	5a 	popl	%edx
10103670:	00 00 	addb	%al, (%eax)
10103672:	00 00 	addb	%al, (%eax)
10103674:	58 	popl	%eax
10103675:	37 	aaa
10103676:	00 00 	addb	%al, (%eax)
10103678:	cc 	int3
10103679:	00 00 	addb	%al, (%eax)
1010367b:	00 2e 	addb	%ch, (%esi)
1010367d:	78 64 	js	100 <.rdata+6E3>
1010367f:	61 	popal
10103680:	74 61 	je	97 <.rdata+6E3>
10103682:	24 78 	andb	$120, %al
10103684:	00 00 	addb	%al, (%eax)
10103686:	00 00 	addb	%al, (%eax)
10103688:	24 38 	andb	$56, %al
1010368a:	00 00 	addb	%al, (%eax)
1010368c:	a0 00 00 00 2e 	movb	771751936, %al
10103691:	69 64 61 74 61 24 32 00 	imull	$3286113, 116(%ecx), %esp
10103699:	00 00 	addb	%al, (%eax)
1010369b:	00 c4 	addb	%al, %ah
1010369d:	38 00 	cmpb	%al, (%eax)
1010369f:	00 14 00 	addb	%dl, (%eax,%eax)
101036a2:	00 00 	addb	%al, (%eax)
101036a4:	2e 69 64 61 74 61 24 33 00 	imull	$3351649, %cs:116(%ecx), %esp
101036ad:	00 00 	addb	%al, (%eax)
101036af:	00 d8 	addb	%bl, %al
101036b1:	38 00 	cmpb	%al, (%eax)
101036b3:	00 ec 	addb	%ch, %ah
101036b5:	00 00 	addb	%al, (%eax)
101036b7:	00 2e 	addb	%ch, (%esi)
101036b9:	69 64 61 74 61 24 34 00 	imull	$3417185, 116(%ecx), %esp
101036c1:	00 00 	addb	%al, (%eax)
101036c3:	00 c4 	addb	%al, %ah
101036c5:	39 00 	cmpl	%eax, (%eax)
101036c7:	00 a8 04 00 00 2e 	addb	%ch, 771751940(%eax)
101036cd:	69 64 61 74 61 24 36 00 	imull	$3548257, 116(%ecx), %esp
101036d5:	00 00 	addb	%al, (%eax)
101036d7:	00 00 	addb	%al, (%eax)
101036d9:	40 	incl	%eax
101036da:	00 00 	addb	%al, (%eax)
101036dc:	18 00 	sbbb	%al, (%eax)
101036de:	00 00 	addb	%al, (%eax)
101036e0:	2e 64 61 	popal
101036e3:	74 61 	je	97 <.rdata+746>
101036e5:	00 00 	addb	%al, (%eax)
101036e7:	00 18 	addb	%bl, (%eax)
101036e9:	40 	incl	%eax
101036ea:	00 00 	addb	%al, (%eax)
101036ec:	78 00 	js	0 <.rdata+6EE>
101036ee:	00 00 	addb	%al, (%eax)
101036f0:	2e 64 61 	popal
101036f3:	74 61 	je	97 <.rdata+756>
101036f5:	24 72 	andb	$114, %al
101036f7:	00 90 40 00 00 6c 	addb	%dl, 1811939392(%eax)
101036fd:	03 00 	addl	(%eax), %eax
101036ff:	00 2e 	addb	%ch, (%esi)
10103701:	62 73 73 	bound	115(%ebx), %esi
10103704:	00 00 	addb	%al, (%eax)
10103706:	00 00 	addb	%al, (%eax)
10103708:	00 50 00 	addb	%dl, (%eax)
1010370b:	00 50 00 	addb	%dl, (%eax)
1010370e:	00 00 	addb	%al, (%eax)
10103710:	2e 67 66 69 64 73 24 79 	imulw	$31012, %cs:115(%si), %sp
10103718:	00 00 	addb	%al, (%eax)
1010371a:	00 00 	addb	%al, (%eax)
1010371c:	00 60 00 	addb	%ah, (%eax)
1010371f:	00 60 00 	addb	%ah, (%eax)
10103722:	00 00 	addb	%al, (%eax)
10103724:	2e 72 73 	jb	115 <.rdata+79A>
10103727:	72 63 	jb	99 <.rdata+78C>
10103729:	24 30 	andb	$48, %al
1010372b:	31 00 	xorl	%eax, (%eax)
1010372d:	00 00 	addb	%al, (%eax)
1010372f:	00 60 60 	addb	%ah, 96(%eax)
10103732:	00 00 	addb	%al, (%eax)
10103734:	80 01 00 	addb	$0, (%ecx)
10103737:	00 2e 	addb	%ch, (%esi)
10103739:	72 73 	jb	115 <.rdata+7AE>
1010373b:	72 63 	jb	99 <.rdata+7A0>
1010373d:	24 30 	andb	$48, %al
1010373f:	32 00 	xorb	(%eax), %al
10103741:	00 00 	addb	%al, (%eax)
10103743:	00 00 	addb	%al, (%eax)
10103745:	00 00 	addb	%al, (%eax)
10103747:	00 00 	addb	%al, (%eax)
10103749:	00 00 	addb	%al, (%eax)
1010374b:	00 00 	addb	%al, (%eax)
1010374d:	00 00 	addb	%al, (%eax)
1010374f:	00 00 	addb	%al, (%eax)
10103751:	00 00 	addb	%al, (%eax)
10103753:	00 00 	addb	%al, (%eax)
10103755:	00 00 	addb	%al, (%eax)
10103757:	00 fe 	addb	%bh, %dh
1010375b:	ff 00 	incl	(%eax)
1010375d:	00 00 	addb	%al, (%eax)
1010375f:	00 cc 	addb	%cl, %ah
10103763:	ff 00 	incl	(%eax)
10103765:	00 00 	addb	%al, (%eax)
10103767:	00 fe 	addb	%bh, %dh
1010376d:	15 10 10 12 16 	adcl	$370282512, %eax
10103772:	10 10 	adcb	%dl, (%eax)
10103774:	00 00 	addb	%al, (%eax)
10103776:	00 00 	addb	%al, (%eax)
10103778:	dd 16 	fstl	(%esi)
1010377a:	10 10 	adcb	%dl, (%eax)
1010377c:	00 00 	addb	%al, (%eax)
1010377e:	00 00 	addb	%al, (%eax)
10103780:	84 37 	testb	(%edi), %dh
10103782:	10 10 	adcb	%dl, (%eax)
10103784:	02 00 	addb	(%eax), %al
10103786:	00 00 	addb	%al, (%eax)
10103788:	90 	nop
10103789:	37 	aaa
1010378a:	10 10 	adcb	%dl, (%eax)
1010378c:	ac 	lodsb	(%esi), %al
1010378d:	37 	aaa
1010378e:	10 10 	adcb	%dl, (%eax)
10103790:	10 00 	adcb	%al, (%eax)
10103792:	00 00 	addb	%al, (%eax)
10103794:	18 40 10 	sbbb	%al, 16(%eax)
10103797:	10 00 	adcb	%al, (%eax)
10103799:	00 00 	addb	%al, (%eax)
1010379b:	00 ff 	addb	%bh, %bh
1010379f:	ff 00 	incl	(%eax)
101037a1:	00 00 	addb	%al, (%eax)
101037a3:	00 0c 00 	addb	%cl, (%eax,%eax)
101037a6:	00 00 	addb	%al, (%eax)
101037a8:	4b 	decl	%ebx
101037a9:	16 	pushl	%ss
101037aa:	10 10 	adcb	%dl, (%eax)
101037ac:	00 00 	addb	%al, (%eax)
101037ae:	00 00 	addb	%al, (%eax)
101037b0:	34 40 	xorb	$64, %al
101037b2:	10 10 	adcb	%dl, (%eax)
101037b4:	00 00 	addb	%al, (%eax)
101037b6:	00 00 	addb	%al, (%eax)
101037bc:	00 00 	addb	%al, (%eax)
101037be:	00 00 	addb	%al, (%eax)
101037c0:	0c 00 	orb	$0, %al
101037c2:	00 00 	addb	%al, (%eax)
101037c4:	b1 16 	movb	$22, %cl
101037c6:	10 10 	adcb	%dl, (%eax)
101037c8:	00 00 	addb	%al, (%eax)
101037ca:	00 00 	addb	%al, (%eax)
101037cc:	dd 16 	fstl	(%esi)
101037ce:	10 10 	adcb	%dl, (%eax)
101037d0:	00 00 	addb	%al, (%eax)
101037d2:	00 00 	addb	%al, (%eax)
101037d4:	d8 37 	fdivs	(%edi)
101037d6:	10 10 	adcb	%dl, (%eax)
101037d8:	03 00 	addl	(%eax), %eax
101037da:	00 00 	addb	%al, (%eax)
101037dc:	e8 37 10 10 90 	calll	-1877995465
101037e1:	37 	aaa
101037e2:	10 10 	adcb	%dl, (%eax)
101037e4:	ac 	lodsb	(%esi), %al
101037e5:	37 	aaa
101037e6:	10 10 	adcb	%dl, (%eax)
101037e8:	00 00 	addb	%al, (%eax)
101037ea:	00 00 	addb	%al, (%eax)
101037ec:	50 	pushl	%eax
101037ed:	40 	incl	%eax
101037ee:	10 10 	adcb	%dl, (%eax)
101037f0:	00 00 	addb	%al, (%eax)
101037f2:	00 00 	addb	%al, (%eax)
101037f8:	00 00 	addb	%al, (%eax)
101037fa:	00 00 	addb	%al, (%eax)
101037fc:	0c 00 	orb	$0, %al
101037fe:	00 00 	addb	%al, (%eax)
10103800:	7e 16 	jle	22 <.rdata+818>
10103802:	10 10 	adcb	%dl, (%eax)
10103804:	00 00 	addb	%al, (%eax)
10103806:	00 00 	addb	%al, (%eax)
1010380c:	00 00 	addb	%al, (%eax)
1010380e:	00 00 	addb	%al, (%eax)
10103810:	d8 ff 	fdivr	%st(7)
10103814:	00 00 	addb	%al, (%eax)
10103816:	00 00 	addb	%al, (%eax)
1010381c:	33 1a 	xorl	(%edx), %ebx
1010381e:	10 10 	adcb	%dl, (%eax)
10103820:	46 	incl	%esi
10103821:	1a 10 	sbbb	(%eax), %dl
10103823:	10 0c 39 	adcb	%cl, (%ecx,%edi)
10103826:	00 00 	addb	%al, (%eax)
10103828:	00 00 	addb	%al, (%eax)
1010382a:	00 00 	addb	%al, (%eax)
1010382c:	00 00 	addb	%al, (%eax)
1010382e:	00 00 	addb	%al, (%eax)
10103830:	30 3a 	xorb	%bh, (%edx)
10103832:	00 00 	addb	%al, (%eax)
10103834:	34 30 	xorb	$48, %al
10103836:	00 00 	addb	%al, (%eax)
10103838:	9c 	pushfl
10103839:	39 00 	cmpl	%eax, (%eax)
1010383b:	00 00 	addb	%al, (%eax)
1010383d:	00 00 	addb	%al, (%eax)
1010383f:	00 00 	addb	%al, (%eax)
10103841:	00 00 	addb	%al, (%eax)
10103843:	00 7c 3c 00 	addb	%bh, (%esp,%edi)
10103847:	00 c4 	addb	%al, %ah
10103849:	30 00 	xorb	%al, (%eax)
1010384b:	00 b8 39 00 00 00 	addb	%bh, 57(%eax)
10103851:	00 00 	addb	%al, (%eax)
10103853:	00 00 	addb	%al, (%eax)
10103855:	00 00 	addb	%al, (%eax)
10103857:	00 9c 3c 00 00 e0 30 	addb	%bl, 819986432(%esp,%edi)
1010385e:	00 00 	addb	%al, (%eax)
10103860:	48 	decl	%eax
10103861:	39 00 	cmpl	%eax, (%eax)
10103863:	00 00 	addb	%al, (%eax)
10103865:	00 00 	addb	%al, (%eax)
10103867:	00 00 	addb	%al, (%eax)
10103869:	00 00 	addb	%al, (%eax)
1010386b:	00 be 3c 00 00 70 	addb	%bh, 1879048252(%esi)
10103871:	30 00 	xorb	%al, (%eax)
10103873:	00 24 39 	addb	%ah, (%ecx,%edi)
10103876:	00 00 	addb	%al, (%eax)
10103878:	00 00 	addb	%al, (%eax)
1010387a:	00 00 	addb	%al, (%eax)
1010387c:	00 00 	addb	%al, (%eax)
1010387e:	00 00 	addb	%al, (%eax)
10103880:	e0 3c 	loopne	60
10103882:	00 00 	addb	%al, (%eax)
10103884:	4c 	decl	%esp
10103885:	30 00 	xorb	%al, (%eax)
10103887:	00 40 39 	addb	%al, 57(%eax)
1010388a:	00 00 	addb	%al, (%eax)
1010388c:	00 00 	addb	%al, (%eax)
1010388e:	00 00 	addb	%al, (%eax)
10103890:	00 00 	addb	%al, (%eax)
10103892:	00 00 	addb	%al, (%eax)
10103894:	00 3d 00 00 68 30 	addb	%bh, 812122112
1010389a:	00 00 	addb	%al, (%eax)
1010389c:	38 39 	cmpb	%bh, (%ecx)
1010389e:	00 00 	addb	%al, (%eax)
101038a0:	00 00 	addb	%al, (%eax)
101038a2:	00 00 	addb	%al, (%eax)
101038a4:	00 00 	addb	%al, (%eax)
101038a6:	00 00 	addb	%al, (%eax)
101038a8:	20 3d 00 00 60 30 	andb	%bh, 811597824
101038ae:	00 00 	addb	%al, (%eax)
101038b0:	d8 38 	fdivrs	(%eax)
101038b2:	00 00 	addb	%al, (%eax)
101038b4:	00 00 	addb	%al, (%eax)
101038b6:	00 00 	addb	%al, (%eax)
101038b8:	00 00 	addb	%al, (%eax)
101038ba:	00 00 	addb	%al, (%eax)
101038bc:	5e 	popl	%esi
101038bd:	3e 00 00 	addb	%al, %ds:(%eax)
101038c0:	00 30 	addb	%dh, (%eax)
101038c2:	00 00 	addb	%al, (%eax)
101038c4:	00 00 	addb	%al, (%eax)
101038c6:	00 00 	addb	%al, (%eax)
101038c8:	00 00 	addb	%al, (%eax)
101038ca:	00 00 	addb	%al, (%eax)
101038cc:	00 00 	addb	%al, (%eax)
101038ce:	00 00 	addb	%al, (%eax)
101038d0:	00 00 	addb	%al, (%eax)
101038d2:	00 00 	addb	%al, (%eax)
101038d4:	00 00 	addb	%al, (%eax)
101038d6:	00 00 	addb	%al, (%eax)
101038d8:	5e 	popl	%esi
101038d9:	3d 00 00 7c 3d 	cmpl	$1031536640, %eax
101038de:	00 00 	addb	%al, (%eax)
101038e0:	90 	nop
101038e1:	3d 00 00 a4 3d 	cmpl	$1034158080, %eax
101038e6:	00 00 	addb	%al, (%eax)
101038e8:	c0 3d 00 00 da 3d 00 	sarb	$0, 1037697024
101038ef:	00 4a 3e 	addb	%cl, 62(%edx)
101038f2:	00 00 	addb	%al, (%eax)
101038f4:	36 3e 00 00 	addb	%al, %ds:(%eax)
101038f8:	20 3e 	andb	%bh, (%esi)
101038fa:	00 00 	addb	%al, (%eax)
101038fc:	06 	pushl	%es
101038fd:	3e 00 00 	addb	%al, %ds:(%eax)
10103900:	f0 	lock
10103901:	3d 00 00 42 3d 	cmpl	$1027735552, %eax
10103906:	00 00 	addb	%al, (%eax)
10103908:	00 00 	addb	%al, (%eax)
1010390a:	00 00 	addb	%al, (%eax)
1010390c:	00 3a 	addb	%bh, (%edx)
1010390e:	00 00 	addb	%al, (%eax)
10103910:	e6 39 	outb	%al, $57
10103912:	00 00 	addb	%al, (%eax)
10103914:	ce 	into
10103915:	39 00 	cmpl	%eax, (%eax)
10103917:	00 16 	addb	%dl, (%esi)
10103919:	3a 00 	cmpb	(%eax), %al
1010391b:	00 c4 	addb	%al, %ah
1010391d:	39 00 	cmpl	%eax, (%eax)
1010391f:	00 00 	addb	%al, (%eax)
10103921:	00 00 	addb	%al, (%eax)
10103923:	00 b0 3a 00 00 74 	addb	%dh, 1946157114(%eax)
10103929:	3c 00 	cmpb	$0, %al
1010392b:	00 a4 3a 00 00 f2 3b 	addb	%ah, 1005715456(%edx,%edi)
10103932:	00 00 	addb	%al, (%eax)
10103934:	00 00 	addb	%al, (%eax)
10103936:	00 00 	addb	%al, (%eax)
10103938:	dc 3b 	fdivrl	(%ebx)
1010393a:	00 00 	addb	%al, (%eax)
1010393c:	00 00 	addb	%al, (%eax)
1010393e:	00 00 	addb	%al, (%eax)
10103940:	dc 3a 	fdivrl	(%edx)
10103942:	00 00 	addb	%al, (%eax)
10103944:	00 00 	addb	%al, (%eax)
10103946:	00 00 	addb	%al, (%eax)
10103948:	a4 	movsb	(%esi), %es:(%edi)
10103949:	3b 00 	cmpl	(%eax), %eax
1010394b:	00 ae 3b 00 00 f0 	addb	%ch, -268435397(%esi)
10103951:	3a 00 	cmpb	(%eax), %al
10103953:	00 9a 3b 00 00 9a 	addb	%bl, -1711275973(%edx)
10103959:	3a 00 	cmpb	(%eax), %al
1010395b:	00 8c 3b 00 00 2e 3c 	addb	%cl, 1009647616(%ebx,%edi)
10103962:	00 00 	addb	%al, (%eax)
10103964:	4a 	decl	%edx
10103965:	3c 00 	cmpb	$0, %al
10103967:	00 58 3c 	addb	%bl, 60(%eax)
1010396a:	00 00 	addb	%al, (%eax)
1010396c:	68 3c 00 00 7e 	pushl	$2113929276
10103971:	3b 00 	cmpl	(%eax), %eax
10103973:	00 92 3a 00 00 68 	addb	%dl, 1744830522(%edx)
10103979:	3b 00 	cmpl	(%eax), %eax
1010397b:	00 5a 3b 	addb	%bl, 59(%edx)
1010397e:	00 00 	addb	%al, (%eax)
10103980:	4e 	decl	%esi
10103981:	3b 00 	cmpl	(%eax), %eax
10103983:	00 2c 3b 	addb	%ch, (%ebx,%edi)
10103986:	00 00 	addb	%al, (%eax)
10103988:	12 3c 00 	adcb	(%eax,%eax), %bh
1010398b:	00 cc 	addb	%cl, %ah
1010398d:	3a 00 	cmpb	(%eax), %al
1010398f:	00 ba 3a 00 00 0a 	addb	%bh, 167772218(%edx)
10103995:	3b 00 	cmpl	(%eax), %eax
10103997:	00 00 	addb	%al, (%eax)
10103999:	00 00 	addb	%al, (%eax)
1010399b:	00 02 	addb	%al, (%edx)
1010399d:	3c 00 	cmpb	$0, %al
1010399f:	00 70 3b 	addb	%dh, 59(%eax)
101039a2:	00 00 	addb	%al, (%eax)
101039a4:	54 	pushl	%esp
101039a5:	3a 00 	cmpb	(%eax), %al
101039a7:	00 42 3a 	addb	%al, 58(%edx)
101039aa:	00 00 	addb	%al, (%eax)
101039ac:	64 3a 00 	cmpb	%fs:(%eax), %al
101039af:	00 5c 3a 00 	addb	%bl, (%edx,%edi)
101039b3:	00 00 	addb	%al, (%eax)
101039b5:	00 00 	addb	%al, (%eax)
101039b7:	00 7e 3a 	addb	%bh, 58(%esi)
101039ba:	00 00 	addb	%al, (%eax)
101039bc:	88 3a 	movb	%bh, (%edx)
101039be:	00 00 	addb	%al, (%eax)
101039c0:	00 00 	addb	%al, (%eax)
101039c2:	00 00 	addb	%al, (%eax)
101039c4:	48 	decl	%eax
101039c5:	00 6d 65 	addb	%ch, 101(%ebp)
101039c8:	6d 	insl	%dx, %es:(%edi)
101039c9:	73 65 	jae	101 <.rdata+A30>
101039cb:	74 00 	je	0 <.rdata+9CD>
101039cd:	00 21 	addb	%ah, (%ecx)
101039cf:	00 5f 5f 	addb	%bl, 95(%edi)
101039d2:	73 74 	jae	116 <.rdata+A48>
101039d4:	64 5f 	popl	%edi
101039d6:	65 78 63 	js	99 <.rdata+A3C>
101039d9:	65 70 74 	jo	116 <.rdata+A50>
101039dc:	69 6f 6e 5f 63 6f 70 	imull	$1886348127, 110(%edi), %ebp
101039e3:	79 00 	jns	0 <.rdata+9E5>
101039e5:	00 22 	addb	%ah, (%edx)
101039e7:	00 5f 5f 	addb	%bl, 95(%edi)
101039ea:	73 74 	jae	116 <.rdata+A60>
101039ec:	64 5f 	popl	%edi
101039ee:	65 78 63 	js	99 <.rdata+A54>
101039f1:	65 70 74 	jo	116 <.rdata+A68>
101039f4:	69 6f 6e 5f 64 65 73 	imull	$1936024671, 110(%edi), %ebp
101039fb:	74 72 	je	114 <.rdata+A6F>
101039fd:	6f 	outsl	(%esi), %dx
101039fe:	79 00 	jns	0 <.rdata+A00>
10103a00:	01 00 	addl	%eax, (%eax)
10103a02:	5f 	popl	%edi
10103a03:	43 	incl	%ebx
10103a04:	78 78 	js	120 <.rdata+A7E>
10103a06:	54 	pushl	%esp
10103a07:	68 72 6f 77 45 	pushl	$1165455218
10103a0c:	78 63 	js	99 <.rdata+A71>
10103a0e:	65 70 74 	jo	116 <.rdata+A85>
10103a11:	69 6f 6e 00 00 35 00 	imull	$3473408, 110(%edi), %ebp
10103a18:	5f 	popl	%edi
10103a19:	65 78 63 	js	99 <.rdata+A7F>
10103a1c:	65 70 74 	jo	116 <.rdata+A93>
10103a1f:	5f 	popl	%edi
10103a20:	68 61 6e 64 6c 	pushl	$1818521185
10103a25:	65 72 34 	jb	52 <.rdata+A5C>
10103a28:	5f 	popl	%edi
10103a29:	63 6f 6d 	arpl	%bp, 109(%edi)
10103a2c:	6d 	insl	%dx, %es:(%edi)
10103a2d:	6f 	outsl	(%esi), %dx
10103a2e:	6e 	outsb	(%esi), %dx
10103a2f:	00 56 43 	addb	%dl, 67(%esi)
10103a32:	52 	pushl	%edx
10103a33:	55 	pushl	%ebp
10103a34:	4e 	decl	%esi
10103a35:	54 	pushl	%esp
10103a36:	49 	decl	%ecx
10103a37:	4d 	decl	%ebp
10103a38:	45 	incl	%ebp
10103a39:	31 34 30 	xorl	%esi, (%eax,%esi)
10103a3c:	2e 64 6c 	insb	%dx, %es:(%edi)
10103a3f:	6c 	insb	%dx, %es:(%edi)
10103a40:	00 00 	addb	%al, (%eax)
10103a42:	00 00 	addb	%al, (%eax)
10103a44:	5f 	popl	%edi
10103a45:	5f 	popl	%edi
10103a46:	61 	popal
10103a47:	63 72 74 	arpl	%si, 116(%edx)
10103a4a:	5f 	popl	%edi
10103a4b:	69 6f 62 5f 66 75 6e 	imull	$1853187679, 98(%edi), %ebp
10103a52:	63 00 	arpl	%ax, (%eax)
10103a54:	7d 00 	jge	0 <.rdata+A56>
10103a56:	66 6f 	outsw	(%esi), %dx
10103a58:	70 65 	jo	101 <.rdata+ABF>
10103a5a:	6e 	outsb	(%esi), %dx
10103a5b:	00 83 00 66 72 65 	addb	%al, 1701996032(%ebx)
10103a61:	61 	popal
10103a62:	64 00 03 	addb	%al, %fs:(%ebx)
10103a65:	00 5f 5f 	addb	%bl, 95(%edi)
10103a68:	73 74 	jae	116 <.rdata+ADE>
10103a6a:	64 69 6f 5f 63 6f 6d 6d 	imull	$1835888483, %fs:95(%edi), %ebp
10103a72:	6f 	outsl	(%esi), %dx
10103a73:	6e 	outsb	(%esi), %dx
10103a74:	5f 	popl	%edi
10103a75:	76 66 	jbe	102 <.rdata+ADD>
10103a77:	70 72 	jo	114 <.rdata+AEB>
10103a79:	69 6e 74 66 00 88 00 	imull	$8912998, 116(%esi), %ebp
10103a80:	73 74 	jae	116 <.rdata+AF6>
10103a82:	72 63 	jb	99 <.rdata+AE7>
10103a84:	70 79 	jo	121 <.rdata+AFF>
10103a86:	00 00 	addb	%al, (%eax)
10103a88:	94 	xchgl	%esp, %eax
10103a89:	00 73 74 	addb	%dh, 116(%ebx)
10103a8c:	72 74 	jb	116 <.rdata+B02>
10103a8e:	6f 	outsl	(%esi), %dx
10103a8f:	6b 00 00 	imull	$0, (%eax), %eax
10103a92:	58 	popl	%eax
10103a93:	00 65 78 	addb	%ah, 120(%ebp)
10103a96:	69 74 00 00 69 00 73 79 	imull	$2037579881, (%eax,%eax), %esi
10103a9e:	73 74 	jae	116 <.rdata+B14>
10103aa0:	65 6d 	insl	%dx, %es:(%edi)
10103aa2:	00 00 	addb	%al, (%eax)
10103aa4:	08 00 	orb	%al, (%eax)
10103aa6:	5f 	popl	%edi
10103aa7:	63 61 6c 	arpl	%sp, 108(%ecx)
10103aaa:	6c 	insb	%dx, %es:(%edi)
10103aab:	6e 	outsb	(%esi), %dx
10103aac:	65 77 68 	ja	104 <.rdata+B17>
10103aaf:	00 19 	addb	%bl, (%ecx)
10103ab1:	00 6d 61 	addb	%ch, 97(%ebp)
10103ab4:	6c 	insb	%dx, %es:(%edi)
10103ab5:	6c 	insb	%dx, %es:(%edi)
10103ab6:	6f 	outsl	(%esi), %dx
10103ab7:	63 00 	arpl	%ax, (%eax)
10103ab9:	00 42 00 	addb	%al, (%edx)
10103abc:	5f 	popl	%edi
10103abd:	73 65 	jae	101 <.rdata+B24>
10103abf:	68 5f 66 69 6c 	pushl	$1818846815
10103ac4:	74 65 	je	101 <.rdata+B2B>
10103ac6:	72 5f 	jb	95 <.rdata+B27>
10103ac8:	65 78 65 	js	101 <.rdata+B30>
10103acb:	00 44 00 5f 	addb	%al, 95(%eax,%eax)
10103acf:	73 65 	jae	101 <.rdata+B36>
10103ad1:	74 5f 	je	95 <.rdata+B32>
10103ad3:	61 	popal
10103ad4:	70 70 	jo	112 <.rdata+B46>
10103ad6:	5f 	popl	%edi
10103ad7:	74 79 	je	121 <.rdata+B52>
10103ad9:	70 65 	jo	101 <.rdata+B40>
10103adb:	00 2e 	addb	%ch, (%esi)
10103add:	00 5f 5f 	addb	%bl, 95(%edi)
10103ae0:	73 65 	jae	101 <.rdata+B47>
10103ae2:	74 75 	je	117 <.rdata+B59>
10103ae4:	73 65 	jae	101 <.rdata+B4B>
10103ae6:	72 6d 	jb	109 <.rdata+B55>
10103ae8:	61 	popal
10103ae9:	74 68 	je	104 <.rdata+B53>
10103aeb:	65 72 72 	jb	114 <.rdata+B60>
10103aee:	00 00 	addb	%al, (%eax)
10103af0:	19 00 	sbbl	%eax, (%eax)
10103af2:	5f 	popl	%edi
10103af3:	63 6f 6e 	arpl	%bp, 110(%edi)
10103af6:	66 69 67 75 72 65 	imulw	$25970, 117(%edi), %sp
10103afc:	5f 	popl	%edi
10103afd:	6e 	outsb	(%esi), %dx
10103afe:	61 	popal
10103aff:	72 72 	jb	114 <.rdata+B73>
10103b01:	6f 	outsl	(%esi), %dx
10103b02:	77 5f 	ja	95 <.rdata+B63>
10103b04:	61 	popal
10103b05:	72 67 	jb	103 <.rdata+B6E>
10103b07:	76 00 	jbe	0 <.rdata+B09>
10103b09:	00 35 00 5f 69 6e 	addb	%dh, 1852399360
10103b0f:	69 74 69 61 6c 69 7a 65 	imull	$1702521196, 97(%ecx,%ebp,2), %esi
10103b17:	5f 	popl	%edi
10103b18:	6e 	outsb	(%esi), %dx
10103b19:	61 	popal
10103b1a:	72 72 	jb	114 <.rdata+B8E>
10103b1c:	6f 	outsl	(%esi), %dx
10103b1d:	77 5f 	ja	95 <.rdata+B7E>
10103b1f:	65 6e 	outsb	%gs:(%esi), %dx
10103b21:	76 69 	jbe	105 <.rdata+B8C>
10103b23:	72 6f 	jb	111 <.rdata+B94>
10103b25:	6e 	outsb	(%esi), %dx
10103b26:	6d 	insl	%dx, %es:(%edi)
10103b27:	65 6e 	outsb	%gs:(%esi), %dx
10103b29:	74 00 	je	0 <.rdata+B2B>
10103b2b:	00 2a 	addb	%ch, (%edx)
10103b2d:	00 5f 67 	addb	%bl, 103(%edi)
10103b30:	65 74 5f 	je	95 <.rdata+B92>
10103b33:	69 6e 69 74 69 61 6c 	imull	$1818323316, 105(%esi), %ebp
10103b3a:	5f 	popl	%edi
10103b3b:	6e 	outsb	(%esi), %dx
10103b3c:	61 	popal
10103b3d:	72 72 	jb	114 <.rdata+BB1>
10103b3f:	6f 	outsl	(%esi), %dx
10103b40:	77 5f 	ja	95 <.rdata+BA1>
10103b42:	65 6e 	outsb	%gs:(%esi), %dx
10103b44:	76 69 	jbe	105 <.rdata+BAF>
10103b46:	72 6f 	jb	111 <.rdata+BB7>
10103b48:	6e 	outsb	(%esi), %dx
10103b49:	6d 	insl	%dx, %es:(%edi)
10103b4a:	65 6e 	outsb	%gs:(%esi), %dx
10103b4c:	74 00 	je	0 <.rdata+B4E>
10103b4e:	38 00 	cmpb	%al, (%eax)
10103b50:	5f 	popl	%edi
10103b51:	69 6e 69 74 74 65 72 	imull	$1919251572, 105(%esi), %ebp
10103b58:	6d 	insl	%dx, %es:(%edi)
10103b59:	00 39 	addb	%bh, (%ecx)
10103b5b:	00 5f 69 	addb	%bl, 105(%edi)
10103b5e:	6e 	outsb	(%esi), %dx
10103b5f:	69 74 74 65 72 6d 5f 65 	imull	$1700752754, 101(%esp,%esi,2), %esi
10103b67:	00 25 00 5f 65 78 	addb	%ah, 2019909376
10103b6d:	69 74 00 54 00 5f 73 65 	imull	$1702059776, 84(%eax,%eax), %esi
10103b75:	74 5f 	je	95 <.rdata+BD6>
10103b77:	66 6d 	insw	%dx, %es:(%edi)
10103b79:	6f 	outsl	(%esi), %dx
10103b7a:	64 65 00 00 	addb	%al, %gs:(%eax)
10103b7e:	05 00 5f 5f 70 	addl	$1885298432, %eax
10103b83:	5f 	popl	%edi
10103b84:	5f 	popl	%edi
10103b85:	5f 	popl	%edi
10103b86:	61 	popal
10103b87:	72 67 	jb	103 <.rdata+BF0>
10103b89:	63 00 	arpl	%ax, (%eax)
10103b8b:	00 06 	addb	%al, (%esi)
10103b8d:	00 5f 5f 	addb	%bl, 95(%edi)
10103b90:	70 5f 	jo	95 <.rdata+BF1>
10103b92:	5f 	popl	%edi
10103b93:	5f 	popl	%edi
10103b94:	61 	popal
10103b95:	72 67 	jb	103 <.rdata+BFE>
10103b97:	76 00 	jbe	0 <.rdata+B99>
10103b99:	00 17 	addb	%dl, (%edi)
10103b9b:	00 5f 63 	addb	%bl, 99(%edi)
10103b9e:	65 78 69 	js	105 <.rdata+C0A>
10103ba1:	74 00 	je	0 <.rdata+BA3>
10103ba3:	00 16 	addb	%dl, (%esi)
10103ba5:	00 5f 63 	addb	%bl, 99(%edi)
10103ba8:	5f 	popl	%edi
10103ba9:	65 78 69 	js	105 <.rdata+C15>
10103bac:	74 00 	je	0 <.rdata+BAE>
10103bae:	3f 	aas
10103baf:	00 5f 72 	addb	%bl, 114(%edi)
10103bb2:	65 67 69 73 74 65 72 5f 74 	imull	$1952412261, %gs:116(%bp,%di), %esi
10103bbb:	68 72 65 61 64 	pushl	$1684104562
10103bc0:	5f 	popl	%edi
10103bc1:	6c 	insb	%dx, %es:(%edi)
10103bc2:	6f 	outsl	(%esi), %dx
10103bc3:	63 61 6c 	arpl	%sp, 108(%ecx)
10103bc6:	5f 	popl	%edi
10103bc7:	65 78 65 	js	101 <.rdata+C2F>
10103bca:	5f 	popl	%edi
10103bcb:	61 	popal
10103bcc:	74 65 	je	101 <.rdata+C33>
10103bce:	78 69 	js	105 <.rdata+C39>
10103bd0:	74 5f 	je	95 <.rdata+C31>
10103bd2:	63 61 6c 	arpl	%sp, 108(%ecx)
10103bd5:	6c 	insb	%dx, %es:(%edi)
10103bd6:	62 61 63 	bound	99(%ecx), %esp
10103bd9:	6b 00 00 	imull	$0, (%eax), %eax
10103bdc:	08 00 	orb	%al, (%eax)
10103bde:	5f 	popl	%edi
10103bdf:	63 6f 6e 	arpl	%bp, 110(%edi)
10103be2:	66 69 67 74 68 72 	imulw	$29288, 116(%edi), %sp
10103be8:	65 61 	popal
10103bea:	64 6c 	insb	%dx, %es:(%edi)
10103bec:	6f 	outsl	(%esi), %dx
10103bed:	63 61 6c 	arpl	%sp, 108(%ecx)
10103bf0:	65 00 16 	addb	%dl, %gs:(%esi)
10103bf3:	00 5f 73 	addb	%bl, 115(%edi)
10103bf6:	65 74 5f 	je	95 <.rdata+C58>
10103bf9:	6e 	outsb	(%esi), %dx
10103bfa:	65 77 5f 	ja	95 <.rdata+C5C>
10103bfd:	6d 	insl	%dx, %es:(%edi)
10103bfe:	6f 	outsl	(%esi), %dx
10103bff:	64 65 00 01 	addb	%al, %gs:(%ecx)
10103c03:	00 5f 5f 	addb	%bl, 95(%edi)
10103c06:	70 5f 	jo	95 <.rdata+C67>
10103c08:	5f 	popl	%edi
10103c09:	63 6f 6d 	arpl	%bp, 109(%edi)
10103c0c:	6d 	insl	%dx, %es:(%edi)
10103c0d:	6f 	outsl	(%esi), %dx
10103c0e:	64 65 00 00 	addb	%al, %gs:(%eax)
10103c12:	36 00 5f 69 	addb	%bl, %ss:105(%edi)
10103c16:	6e 	outsb	(%esi), %dx
10103c17:	69 74 69 61 6c 69 7a 65 	imull	$1702521196, 97(%ecx,%ebp,2), %esi
10103c1f:	5f 	popl	%edi
10103c20:	6f 	outsl	(%esi), %dx
10103c21:	6e 	outsb	(%esi), %dx
10103c22:	65 78 69 	js	105 <.rdata+C8E>
10103c25:	74 5f 	je	95 <.rdata+C86>
10103c27:	74 61 	je	97 <.rdata+C8A>
10103c29:	62 6c 65 00 	bound	(%ebp), %ebp
10103c2d:	00 3e 	addb	%bh, (%esi)
10103c2f:	00 5f 72 	addb	%bl, 114(%edi)
10103c32:	65 67 69 73 74 65 72 5f 6f 	imull	$1868526181, %gs:116(%bp,%di), %esi
10103c3b:	6e 	outsb	(%esi), %dx
10103c3c:	65 78 69 	js	105 <.rdata+CA8>
10103c3f:	74 5f 	je	95 <.rdata+CA0>
10103c41:	66 75 6e 	jne	110 <.rdata+CB2>
10103c44:	63 74 69 6f 	arpl	%si, 111(%ecx,%ebp,2)
10103c48:	6e 	outsb	(%esi), %dx
10103c49:	00 1f 	addb	%bl, (%edi)
10103c4b:	00 5f 63 	addb	%bl, 99(%edi)
10103c4e:	72 74 	jb	116 <.rdata+CC4>
10103c50:	5f 	popl	%edi
10103c51:	61 	popal
10103c52:	74 65 	je	101 <.rdata+CB9>
10103c54:	78 69 	js	105 <.rdata+CBF>
10103c56:	74 00 	je	0 <.rdata+C58>
10103c58:	1d 00 5f 63 6f 	sbbl	$1868783360, %eax
10103c5d:	6e 	outsb	(%esi), %dx
10103c5e:	74 72 	je	114 <.rdata+CD2>
10103c60:	6f 	outsl	(%esi), %dx
10103c61:	6c 	insb	%dx, %es:(%edi)
10103c62:	66 70 5f 	jo	95 <.rdata+CC4>
10103c65:	73 00 	jae	0 <.rdata+C67>
10103c67:	00 6a 00 	addb	%ch, (%edx)
10103c6a:	74 65 	je	101 <.rdata+CD1>
10103c6c:	72 6d 	jb	109 <.rdata+CDB>
10103c6e:	69 6e 61 74 65 00 18 	imull	$402679156, 97(%esi), %ebp
10103c75:	00 66 72 	addb	%ah, 114(%esi)
10103c78:	65 65 00 00 	addb	%al, %gs:(%eax)
10103c7c:	61 	popal
10103c7d:	70 69 	jo	105 <.rdata+CE8>
10103c7f:	2d 6d 73 2d 77 	subl	$1999467373, %eax
10103c84:	69 6e 2d 63 72 74 2d 	imull	$762606179, 45(%esi), %ebp
10103c8b:	73 74 	jae	116 <.rdata+D01>
10103c8d:	64 69 6f 2d 6c 31 2d 31 	imull	$825045356, %fs:45(%edi), %ebp
10103c95:	2d 30 2e 64 6c 	subl	$1818504752, %eax
10103c9a:	6c 	insb	%dx, %es:(%edi)
10103c9b:	00 61 70 	addb	%ah, 112(%ecx)
10103c9e:	69 2d 6d 73 2d 77 69 6e 2d 63 	imull	$1663921769, 1999467373, %ebp
10103ca8:	72 74 	jb	116 <.rdata+D1E>
10103caa:	2d 73 74 72 69 	subl	$1769108595, %eax
10103caf:	6e 	outsb	(%esi), %dx
10103cb0:	67 2d 6c 31 2d 31 	subl	$825045356, %eax
10103cb6:	2d 30 2e 64 6c 	subl	$1818504752, %eax
10103cbb:	6c 	insb	%dx, %es:(%edi)
10103cbc:	00 00 	addb	%al, (%eax)
10103cbe:	61 	popal
10103cbf:	70 69 	jo	105 <.rdata+D2A>
10103cc1:	2d 6d 73 2d 77 	subl	$1999467373, %eax
10103cc6:	69 6e 2d 63 72 74 2d 	imull	$762606179, 45(%esi), %ebp
10103ccd:	72 75 	jb	117 <.rdata+D44>
10103ccf:	6e 	outsb	(%esi), %dx
10103cd0:	74 69 	je	105 <.rdata+D3B>
10103cd2:	6d 	insl	%dx, %es:(%edi)
10103cd3:	65 2d 6c 31 2d 31 	subl	$825045356, %eax
10103cd9:	2d 30 2e 64 6c 	subl	$1818504752, %eax
10103cde:	6c 	insb	%dx, %es:(%edi)
10103cdf:	00 61 70 	addb	%ah, 112(%ecx)
10103ce2:	69 2d 6d 73 2d 77 69 6e 2d 63 	imull	$1663921769, 1999467373, %ebp
10103cec:	72 74 	jb	116 <.rdata+D62>
10103cee:	2d 68 65 61 70 	subl	$1885431144, %eax
10103cf3:	2d 6c 31 2d 31 	subl	$825045356, %eax
10103cf8:	2d 30 2e 64 6c 	subl	$1818504752, %eax
10103cfd:	6c 	insb	%dx, %es:(%edi)
10103cfe:	00 00 	addb	%al, (%eax)
10103d00:	61 	popal
10103d01:	70 69 	jo	105 <.rdata+D6C>
10103d03:	2d 6d 73 2d 77 	subl	$1999467373, %eax
10103d08:	69 6e 2d 63 72 74 2d 	imull	$762606179, 45(%esi), %ebp
10103d0f:	6d 	insl	%dx, %es:(%edi)
10103d10:	61 	popal
10103d11:	74 68 	je	104 <.rdata+D7B>
10103d13:	2d 6c 31 2d 31 	subl	$825045356, %eax
10103d18:	2d 30 2e 64 6c 	subl	$1818504752, %eax
10103d1d:	6c 	insb	%dx, %es:(%edi)
10103d1e:	00 00 	addb	%al, (%eax)
10103d20:	61 	popal
10103d21:	70 69 	jo	105 <.rdata+D8C>
10103d23:	2d 6d 73 2d 77 	subl	$1999467373, %eax
10103d28:	69 6e 2d 63 72 74 2d 	imull	$762606179, 45(%esi), %ebp
10103d2f:	6c 	insb	%dx, %es:(%edi)
10103d30:	6f 	outsl	(%esi), %dx
10103d31:	63 61 6c 	arpl	%sp, 108(%ecx)
10103d34:	65 2d 6c 31 2d 31 	subl	$825045356, %eax
10103d3a:	2d 30 2e 64 6c 	subl	$1818504752, %eax
10103d3f:	6c 	insb	%dx, %es:(%edi)
10103d40:	00 00 	addb	%al, (%eax)
10103d42:	82 05 55 6e 68 61 6e 	addb	$110, 1634233941
10103d49:	64 6c 	insb	%dx, %es:(%edi)
10103d4b:	65 64 45 	incl	%ebp
10103d4e:	78 63 	js	99 <.rdata+DB3>
10103d50:	65 70 74 	jo	116 <.rdata+DC7>
10103d53:	69 6f 6e 46 69 6c 74 	imull	$1953261894, 110(%edi), %ebp
10103d5a:	65 72 00 	jb	0 <.rdata+D5D>
10103d5d:	00 43 05 	addb	%al, 5(%ebx)
10103d60:	53 	pushl	%ebx
10103d61:	65 74 55 	je	85 <.rdata+DB9>
10103d64:	6e 	outsb	(%esi), %dx
10103d65:	68 61 6e 64 6c 	pushl	$1818521185
10103d6a:	65 64 45 	incl	%ebp
10103d6d:	78 63 	js	99 <.rdata+DD2>
10103d6f:	65 70 74 	jo	116 <.rdata+DE6>
10103d72:	69 6f 6e 46 69 6c 74 	imull	$1953261894, 110(%edi), %ebp
10103d79:	65 72 00 	jb	0 <.rdata+D7C>
10103d7c:	09 02 	orl	%eax, (%edx)
10103d7e:	47 	incl	%edi
10103d7f:	65 74 43 	je	67 <.rdata+DC5>
10103d82:	75 72 	jne	114 <.rdata+DF6>
10103d84:	72 65 	jb	101 <.rdata+DEB>
10103d86:	6e 	outsb	(%esi), %dx
10103d87:	74 50 	je	80 <.rdata+DD9>
10103d89:	72 6f 	jb	111 <.rdata+DFA>
10103d8b:	63 65 73 	arpl	%sp, 115(%ebp)
10103d8e:	73 00 	jae	0 <.rdata+D90>
10103d90:	61 	popal
10103d91:	05 54 65 72 6d 	addl	$1836213588, %eax
10103d96:	69 6e 61 74 65 50 72 	imull	$1917871476, 97(%esi), %ebp
10103d9d:	6f 	outsl	(%esi), %dx
10103d9e:	63 65 73 	arpl	%sp, 115(%ebp)
10103da1:	73 00 	jae	0 <.rdata+DA3>
10103da3:	00 6d 03 	addb	%ch, 3(%ebp)
10103da6:	49 	decl	%ecx
10103da7:	73 50 	jae	80 <.rdata+DF9>
10103da9:	72 6f 	jb	111 <.rdata+E1A>
10103dab:	63 65 73 	arpl	%sp, 115(%ebp)
10103dae:	73 6f 	jae	111 <.rdata+E1F>
10103db0:	72 46 	jb	70 <.rdata+DF8>
10103db2:	65 61 	popal
10103db4:	74 75 	je	117 <.rdata+E2B>
10103db6:	72 65 	jb	101 <.rdata+E1D>
10103db8:	50 	pushl	%eax
10103db9:	72 65 	jb	101 <.rdata+E20>
10103dbb:	73 65 	jae	101 <.rdata+E22>
10103dbd:	6e 	outsb	(%esi), %dx
10103dbe:	74 00 	je	0 <.rdata+DC0>
10103dc0:	2d 04 51 75 65 	subl	$1702187268, %eax
10103dc5:	72 79 	jb	121 <.rdata+E40>
10103dc7:	50 	pushl	%eax
10103dc8:	65 72 66 	jb	102 <.rdata+E31>
10103dcb:	6f 	outsl	(%esi), %dx
10103dcc:	72 6d 	jb	109 <.rdata+E3B>
10103dce:	61 	popal
10103dcf:	6e 	outsb	(%esi), %dx
10103dd0:	63 65 43 	arpl	%sp, 67(%ebp)
10103dd3:	6f 	outsl	(%esi), %dx
10103dd4:	75 6e 	jne	110 <.rdata+E44>
10103dd6:	74 65 	je	101 <.rdata+E3D>
10103dd8:	72 00 	jb	0 <.rdata+DDA>
10103dda:	0a 02 	orb	(%edx), %al
10103ddc:	47 	incl	%edi
10103ddd:	65 74 43 	je	67 <.rdata+E23>
10103de0:	75 72 	jne	114 <.rdata+E54>
10103de2:	72 65 	jb	101 <.rdata+E49>
10103de4:	6e 	outsb	(%esi), %dx
10103de5:	74 50 	je	80 <.rdata+E37>
10103de7:	72 6f 	jb	111 <.rdata+E58>
10103de9:	63 65 73 	arpl	%sp, 115(%ebp)
10103dec:	73 49 	jae	73 <.rdata+E37>
10103dee:	64 00 0e 	addb	%cl, %fs:(%esi)
10103df1:	02 47 65 	addb	101(%edi), %al
10103df4:	74 43 	je	67 <.rdata+E39>
10103df6:	75 72 	jne	114 <.rdata+E6A>
10103df8:	72 65 	jb	101 <.rdata+E5F>
10103dfa:	6e 	outsb	(%esi), %dx
10103dfb:	74 54 	je	84 <.rdata+E51>
10103dfd:	68 72 65 61 64 	pushl	$1684104562
10103e02:	49 	decl	%ecx
10103e03:	64 00 00 	addb	%al, %fs:(%eax)
10103e07:	02 47 65 	addb	101(%edi), %al
10103e0a:	74 53 	je	83 <.rdata+E5F>
10103e0c:	79 73 	jns	115 <.rdata+E81>
10103e0e:	74 65 	je	101 <.rdata+E75>
10103e10:	6d 	insl	%dx, %es:(%edi)
10103e11:	54 	pushl	%esp
10103e12:	69 6d 65 41 73 46 69 	imull	$1766224705, 101(%ebp), %ebp
10103e19:	6c 	insb	%dx, %es:(%edi)
10103e1a:	65 54 	pushl	%esp
10103e1c:	69 6d 65 00 4b 03 49 	imull	$1224952576, 101(%ebp), %ebp
10103e23:	6e 	outsb	(%esi), %dx
10103e24:	69 74 69 61 6c 69 7a 65 	imull	$1702521196, 97(%ecx,%ebp,2), %esi
10103e2c:	53 	pushl	%ebx
10103e2d:	4c 	decl	%esp
10103e2e:	69 73 74 48 65 61 64 	imull	$1684104520, 116(%ebx), %esi
10103e35:	00 67 03 	addb	%ah, 3(%edi)
10103e38:	49 	decl	%ecx
10103e39:	73 44 	jae	68 <.rdata+E7F>
10103e3b:	65 62 75 67 	bound	%gs:103(%ebp), %esi
10103e3f:	67 65 72 50 	jb	80 <.rdata+E93>
10103e43:	72 65 	jb	101 <.rdata+EAA>
10103e45:	73 65 	jae	101 <.rdata+EAC>
10103e47:	6e 	outsb	(%esi), %dx
10103e48:	74 00 	je	0 <.rdata+E4A>
10103e4a:	67 02 47 65 	addb	101(%bx), %al
10103e4e:	74 4d 	je	77 <.rdata+E9D>
10103e50:	6f 	outsl	(%esi), %dx
10103e51:	64 75 6c 	jne	108 <.rdata+EC0>
10103e54:	65 48 	decl	%eax
10103e56:	61 	popal
10103e57:	6e 	outsb	(%esi), %dx
10103e58:	64 6c 	insb	%dx, %es:(%edi)
10103e5a:	65 57 	pushl	%edi
10103e5c:	00 00 	addb	%al, (%eax)
10103e5e:	4b 	decl	%ebx
10103e5f:	45 	incl	%ebp
10103e60:	52 	pushl	%edx
10103e61:	4e 	decl	%esi
10103e62:	45 	incl	%ebp
10103e63:	4c 	decl	%esp
10103e64:	33 32 	xorl	(%edx), %esi
10103e66:	2e 64 6c 	insb	%dx, %es:(%edi)
10103e69:	6c 	insb	%dx, %es:(%edi)
10103e6a:	00 00 	addb	%al, (%eax)
Disassembly of section .data:
.data:
10104000:	b1 19 	movb	$25, %cl
10104002:	bf 44 4e e6 40 	movl	$1088835140, %edi
10104007:	bb ff ff ff ff 	movl	$4294967295, %ebx
1010400c:	01 00 	addl	%eax, (%eax)
1010400e:	00 00 	addb	%al, (%eax)
10104010:	01 00 	addl	%eax, (%eax)
10104012:	00 00 	addb	%al, (%eax)
10104014:	01 00 	addl	%eax, (%eax)
10104016:	00 00 	addb	%al, (%eax)
10104018:	3c 32 	cmpb	$50, %al
1010401a:	10 10 	adcb	%dl, (%eax)
1010401c:	00 00 	addb	%al, (%eax)
1010401e:	00 00 	addb	%al, (%eax)
10104020:	2e 3f 	aas
10104022:	41 	incl	%ecx
10104023:	56 	pushl	%esi
10104024:	62 61 64 	bound	100(%ecx), %esp
10104027:	5f 	popl	%edi
10104028:	61 	popal
10104029:	6c 	insb	%dx, %es:(%edi)
1010402a:	6c 	insb	%dx, %es:(%edi)
1010402b:	6f 	outsl	(%esi), %dx
1010402c:	63 40 73 	arpl	%ax, 115(%eax)
1010402f:	74 64 	je	100 <.data+95>
10104031:	40 	incl	%eax
10104032:	40 	incl	%eax
10104033:	00 3c 32 	addb	%bh, (%edx,%esi)
10104036:	10 10 	adcb	%dl, (%eax)
10104038:	00 00 	addb	%al, (%eax)
1010403a:	00 00 	addb	%al, (%eax)
1010403c:	2e 3f 	aas
1010403e:	41 	incl	%ecx
1010403f:	56 	pushl	%esi
10104040:	65 78 63 	js	99 <.data+A6>
10104043:	65 70 74 	jo	116 <.data+BA>
10104046:	69 6f 6e 40 73 74 64 	imull	$1685353280, 110(%edi), %ebp
1010404d:	40 	incl	%eax
1010404e:	40 	incl	%eax
1010404f:	00 3c 32 	addb	%bh, (%edx,%esi)
10104052:	10 10 	adcb	%dl, (%eax)
10104054:	00 00 	addb	%al, (%eax)
10104056:	00 00 	addb	%al, (%eax)
10104058:	2e 3f 	aas
1010405a:	41 	incl	%ecx
1010405b:	56 	pushl	%esi
1010405c:	62 61 64 	bound	100(%ecx), %esp
1010405f:	5f 	popl	%edi
10104060:	61 	popal
10104061:	72 72 	jb	114 <.data+D5>
10104063:	61 	popal
10104064:	79 5f 	jns	95 <.data+C5>
10104066:	6e 	outsb	(%esi), %dx
10104067:	65 77 5f 	ja	95 <.data+C9>
1010406a:	6c 	insb	%dx, %es:(%edi)
1010406b:	65 6e 	outsb	%gs:(%esi), %dx
1010406d:	67 74 68 	je	104 <.data+D8>
10104070:	40 	incl	%eax
10104071:	73 74 	jae	116 <.data+E7>
10104073:	64 40 	incl	%eax
10104075:	40 	incl	%eax
10104076:	00 00 	addb	%al, (%eax)
10104078:	3c 32 	cmpb	$50, %al
1010407a:	10 10 	adcb	%dl, (%eax)
1010407c:	00 00 	addb	%al, (%eax)
1010407e:	00 00 	addb	%al, (%eax)
10104080:	2e 3f 	aas
10104082:	41 	incl	%ecx
10104083:	56 	pushl	%esi
10104084:	74 79 	je	121 <.data+FF>
10104086:	70 65 	jo	101 <.data+ED>
10104088:	5f 	popl	%edi
10104089:	69 6e 66 6f 40 40 00 	imull	$4210799, 102(%esi), %ebp
10104090:	00 00 	addb	%al, (%eax)
10104092:	00 00 	addb	%al, (%eax)
10104094:	00 00 	addb	%al, (%eax)
10104096:	00 00 	addb	%al, (%eax)
10104098:	00 00 	addb	%al, (%eax)
1010409a:	00 00 	addb	%al, (%eax)
1010409c:	00 00 	addb	%al, (%eax)
1010409e:	00 00 	addb	%al, (%eax)
101040a0:	00 00 	addb	%al, (%eax)
101040a2:	00 00 	addb	%al, (%eax)
101040a4:	00 00 	addb	%al, (%eax)
101040a6:	00 00 	addb	%al, (%eax)
101040a8:	00 00 	addb	%al, (%eax)
101040aa:	00 00 	addb	%al, (%eax)
101040ac:	00 00 	addb	%al, (%eax)
101040ae:	00 00 	addb	%al, (%eax)
101040b0:	00 00 	addb	%al, (%eax)
101040b2:	00 00 	addb	%al, (%eax)
101040b4:	00 00 	addb	%al, (%eax)
101040b6:	00 00 	addb	%al, (%eax)
101040b8:	00 00 	addb	%al, (%eax)
101040ba:	00 00 	addb	%al, (%eax)
101040bc:	00 00 	addb	%al, (%eax)
101040be:	00 00 	addb	%al, (%eax)
101040c0:	00 00 	addb	%al, (%eax)
101040c2:	00 00 	addb	%al, (%eax)
101040c4:	00 00 	addb	%al, (%eax)
101040c6:	00 00 	addb	%al, (%eax)
101040c8:	00 00 	addb	%al, (%eax)
101040ca:	00 00 	addb	%al, (%eax)
101040cc:	00 00 	addb	%al, (%eax)
101040ce:	00 00 	addb	%al, (%eax)
101040d0:	00 00 	addb	%al, (%eax)
101040d2:	00 00 	addb	%al, (%eax)
101040d4:	00 00 	addb	%al, (%eax)
101040d6:	00 00 	addb	%al, (%eax)
101040d8:	00 00 	addb	%al, (%eax)
101040da:	00 00 	addb	%al, (%eax)
101040dc:	00 00 	addb	%al, (%eax)
101040de:	00 00 	addb	%al, (%eax)
101040e0:	00 00 	addb	%al, (%eax)
101040e2:	00 00 	addb	%al, (%eax)
101040e4:	00 00 	addb	%al, (%eax)
101040e6:	00 00 	addb	%al, (%eax)
101040e8:	00 00 	addb	%al, (%eax)
101040ea:	00 00 	addb	%al, (%eax)
101040ec:	00 00 	addb	%al, (%eax)
101040ee:	00 00 	addb	%al, (%eax)
101040f0:	00 00 	addb	%al, (%eax)
101040f2:	00 00 	addb	%al, (%eax)
101040f4:	00 00 	addb	%al, (%eax)
101040f6:	00 00 	addb	%al, (%eax)
101040f8:	00 00 	addb	%al, (%eax)
101040fa:	00 00 	addb	%al, (%eax)
101040fc:	00 00 	addb	%al, (%eax)
101040fe:	00 00 	addb	%al, (%eax)
10104100:	00 00 	addb	%al, (%eax)
10104102:	00 00 	addb	%al, (%eax)
10104104:	00 00 	addb	%al, (%eax)
10104106:	00 00 	addb	%al, (%eax)
10104108:	00 00 	addb	%al, (%eax)
1010410a:	00 00 	addb	%al, (%eax)
1010410c:	00 00 	addb	%al, (%eax)
1010410e:	00 00 	addb	%al, (%eax)
10104110:	00 00 	addb	%al, (%eax)
10104112:	00 00 	addb	%al, (%eax)
10104114:	00 00 	addb	%al, (%eax)
10104116:	00 00 	addb	%al, (%eax)
10104118:	00 00 	addb	%al, (%eax)
1010411a:	00 00 	addb	%al, (%eax)
1010411c:	00 00 	addb	%al, (%eax)
1010411e:	00 00 	addb	%al, (%eax)
10104120:	00 00 	addb	%al, (%eax)
10104122:	00 00 	addb	%al, (%eax)
10104124:	00 00 	addb	%al, (%eax)
10104126:	00 00 	addb	%al, (%eax)
10104128:	00 00 	addb	%al, (%eax)
1010412a:	00 00 	addb	%al, (%eax)
1010412c:	00 00 	addb	%al, (%eax)
1010412e:	00 00 	addb	%al, (%eax)
10104130:	00 00 	addb	%al, (%eax)
10104132:	00 00 	addb	%al, (%eax)
10104134:	00 00 	addb	%al, (%eax)
10104136:	00 00 	addb	%al, (%eax)
10104138:	00 00 	addb	%al, (%eax)
1010413a:	00 00 	addb	%al, (%eax)
1010413c:	00 00 	addb	%al, (%eax)
1010413e:	00 00 	addb	%al, (%eax)
10104140:	00 00 	addb	%al, (%eax)
10104142:	00 00 	addb	%al, (%eax)
10104144:	00 00 	addb	%al, (%eax)
10104146:	00 00 	addb	%al, (%eax)
10104148:	00 00 	addb	%al, (%eax)
1010414a:	00 00 	addb	%al, (%eax)
1010414c:	00 00 	addb	%al, (%eax)
1010414e:	00 00 	addb	%al, (%eax)
10104150:	00 00 	addb	%al, (%eax)
10104152:	00 00 	addb	%al, (%eax)
10104154:	00 00 	addb	%al, (%eax)
10104156:	00 00 	addb	%al, (%eax)
10104158:	00 00 	addb	%al, (%eax)
1010415a:	00 00 	addb	%al, (%eax)
1010415c:	00 00 	addb	%al, (%eax)
1010415e:	00 00 	addb	%al, (%eax)
10104160:	00 00 	addb	%al, (%eax)
10104162:	00 00 	addb	%al, (%eax)
10104164:	00 00 	addb	%al, (%eax)
10104166:	00 00 	addb	%al, (%eax)
10104168:	00 00 	addb	%al, (%eax)
1010416a:	00 00 	addb	%al, (%eax)
1010416c:	00 00 	addb	%al, (%eax)
1010416e:	00 00 	addb	%al, (%eax)
10104170:	00 00 	addb	%al, (%eax)
10104172:	00 00 	addb	%al, (%eax)
10104174:	00 00 	addb	%al, (%eax)
10104176:	00 00 	addb	%al, (%eax)
10104178:	00 00 	addb	%al, (%eax)
1010417a:	00 00 	addb	%al, (%eax)
1010417c:	00 00 	addb	%al, (%eax)
1010417e:	00 00 	addb	%al, (%eax)
10104180:	00 00 	addb	%al, (%eax)
10104182:	00 00 	addb	%al, (%eax)
10104184:	00 00 	addb	%al, (%eax)
10104186:	00 00 	addb	%al, (%eax)
10104188:	00 00 	addb	%al, (%eax)
1010418a:	00 00 	addb	%al, (%eax)
1010418c:	00 00 	addb	%al, (%eax)
1010418e:	00 00 	addb	%al, (%eax)
10104190:	00 00 	addb	%al, (%eax)
10104192:	00 00 	addb	%al, (%eax)
10104194:	00 00 	addb	%al, (%eax)
10104196:	00 00 	addb	%al, (%eax)
10104198:	00 00 	addb	%al, (%eax)
1010419a:	00 00 	addb	%al, (%eax)
1010419c:	00 00 	addb	%al, (%eax)
1010419e:	00 00 	addb	%al, (%eax)
101041a0:	00 00 	addb	%al, (%eax)
101041a2:	00 00 	addb	%al, (%eax)
101041a4:	00 00 	addb	%al, (%eax)
101041a6:	00 00 	addb	%al, (%eax)
101041a8:	00 00 	addb	%al, (%eax)
101041aa:	00 00 	addb	%al, (%eax)
101041ac:	00 00 	addb	%al, (%eax)
101041ae:	00 00 	addb	%al, (%eax)
101041b0:	00 00 	addb	%al, (%eax)
101041b2:	00 00 	addb	%al, (%eax)
101041b4:	00 00 	addb	%al, (%eax)
101041b6:	00 00 	addb	%al, (%eax)
101041b8:	00 00 	addb	%al, (%eax)
101041ba:	00 00 	addb	%al, (%eax)
101041bc:	00 00 	addb	%al, (%eax)
101041be:	00 00 	addb	%al, (%eax)
101041c0:	00 00 	addb	%al, (%eax)
101041c2:	00 00 	addb	%al, (%eax)
101041c4:	00 00 	addb	%al, (%eax)
101041c6:	00 00 	addb	%al, (%eax)
101041c8:	00 00 	addb	%al, (%eax)
101041ca:	00 00 	addb	%al, (%eax)
101041cc:	00 00 	addb	%al, (%eax)
101041ce:	00 00 	addb	%al, (%eax)
101041d0:	00 00 	addb	%al, (%eax)
101041d2:	00 00 	addb	%al, (%eax)
101041d4:	00 00 	addb	%al, (%eax)
101041d6:	00 00 	addb	%al, (%eax)
101041d8:	00 00 	addb	%al, (%eax)
101041da:	00 00 	addb	%al, (%eax)
101041dc:	00 00 	addb	%al, (%eax)
101041de:	00 00 	addb	%al, (%eax)
101041e0:	00 00 	addb	%al, (%eax)
101041e2:	00 00 	addb	%al, (%eax)
101041e4:	00 00 	addb	%al, (%eax)
101041e6:	00 00 	addb	%al, (%eax)
101041e8:	00 00 	addb	%al, (%eax)
101041ea:	00 00 	addb	%al, (%eax)
101041ec:	00 00 	addb	%al, (%eax)
101041ee:	00 00 	addb	%al, (%eax)
101041f0:	00 00 	addb	%al, (%eax)
101041f2:	00 00 	addb	%al, (%eax)
101041f4:	00 00 	addb	%al, (%eax)
101041f6:	00 00 	addb	%al, (%eax)
101041f8:	00 00 	addb	%al, (%eax)
101041fa:	00 00 	addb	%al, (%eax)
101041fc:	00 00 	addb	%al, (%eax)
101041fe:	00 00 	addb	%al, (%eax)
Disassembly of section .gfids:
.gfids:
10105000:	0a 00 	orb	(%eax), %al
10105002:	00 00 	addb	%al, (%eax)
10105004:	0d 00 00 00 10 	orl	$268435456, %eax
10105009:	00 00 	addb	%al, (%eax)
1010500b:	00 45 00 	addb	%al, (%ebp)
1010500e:	00 00 	addb	%al, (%eax)
10105010:	73 00 	jae	0 <.gfids+12>
10105012:	00 00 	addb	%al, (%eax)
10105014:	4e 	decl	%esi
10105015:	00 00 	addb	%al, (%eax)
10105017:	00 50 00 	addb	%dl, (%eax)
1010501a:	00 00 	addb	%al, (%eax)
1010501c:	4e 	decl	%esi
1010501d:	00 00 	addb	%al, (%eax)
1010501f:	00 57 00 	addb	%dl, (%edi)
10105022:	00 00 	addb	%al, (%eax)
10105024:	4e 	decl	%esi
10105025:	00 00 	addb	%al, (%eax)
10105027:	00 5d 00 	addb	%bl, (%ebp)
1010502a:	00 00 	addb	%al, (%eax)
1010502c:	54 	pushl	%esp
1010502d:	00 00 	addb	%al, (%eax)
1010502f:	00 55 00 	addb	%dl, (%ebp)
10105032:	00 00 	addb	%al, (%eax)
10105034:	4c 	decl	%esp
10105035:	00 00 	addb	%al, (%eax)
10105037:	00 5a 00 	addb	%bl, (%edx)
1010503a:	00 00 	addb	%al, (%eax)
1010503c:	5b 	popl	%ebx
1010503d:	00 00 	addb	%al, (%eax)
1010503f:	00 34 00 	addb	%dh, (%eax,%eax)
10105042:	00 00 	addb	%al, (%eax)
10105044:	0c 00 	orb	$0, %al
10105046:	00 00 	addb	%al, (%eax)
10105048:	13 00 	adcl	(%eax), %eax
1010504a:	00 00 	addb	%al, (%eax)
1010504c:	0a 00 	orb	(%eax), %al
1010504e:	00 00 	addb	%al, (%eax)
Disassembly of section .rsrc:
.rsrc:
10106000:	00 00 	addb	%al, (%eax)
10106002:	00 00 	addb	%al, (%eax)
10106004:	00 00 	addb	%al, (%eax)
10106006:	00 00 	addb	%al, (%eax)
10106008:	00 00 	addb	%al, (%eax)
1010600a:	00 00 	addb	%al, (%eax)
1010600c:	00 00 	addb	%al, (%eax)
1010600e:	01 00 	addl	%eax, (%eax)
10106010:	18 00 	sbbb	%al, (%eax)
10106012:	00 00 	addb	%al, (%eax)
10106014:	18 00 	sbbb	%al, (%eax)
10106016:	00 80 00 00 00 00 	addb	%al, (%eax)
1010601c:	00 00 	addb	%al, (%eax)
1010601e:	00 00 	addb	%al, (%eax)
10106020:	00 00 	addb	%al, (%eax)
10106022:	00 00 	addb	%al, (%eax)
10106024:	00 00 	addb	%al, (%eax)
10106026:	01 00 	addl	%eax, (%eax)
10106028:	01 00 	addl	%eax, (%eax)
1010602a:	00 00 	addb	%al, (%eax)
1010602c:	30 00 	xorb	%al, (%eax)
1010602e:	00 80 00 00 00 00 	addb	%al, (%eax)
10106034:	00 00 	addb	%al, (%eax)
10106036:	00 00 	addb	%al, (%eax)
10106038:	00 00 	addb	%al, (%eax)
1010603a:	00 00 	addb	%al, (%eax)
1010603c:	00 00 	addb	%al, (%eax)
1010603e:	01 00 	addl	%eax, (%eax)
10106040:	09 04 00 	orl	%eax, (%eax,%eax)
10106043:	00 48 00 	addb	%cl, (%eax)
10106046:	00 00 	addb	%al, (%eax)
10106048:	60 	pushal
10106049:	60 	pushal
1010604a:	00 00 	addb	%al, (%eax)
1010604c:	7d 01 	jge	1 <.rsrc+4F>
1010604e:	00 00 	addb	%al, (%eax)
10106050:	00 00 	addb	%al, (%eax)
10106052:	00 00 	addb	%al, (%eax)
10106054:	00 00 	addb	%al, (%eax)
10106056:	00 00 	addb	%al, (%eax)
10106058:	00 00 	addb	%al, (%eax)
1010605a:	00 00 	addb	%al, (%eax)
1010605c:	00 00 	addb	%al, (%eax)
1010605e:	00 00 	addb	%al, (%eax)
10106060:	3c 3f 	cmpb	$63, %al
10106062:	78 6d 	js	109 <.rsrc+D1>
10106064:	6c 	insb	%dx, %es:(%edi)
10106065:	20 76 65 	andb	%dh, 101(%esi)
10106068:	72 73 	jb	115 <.rsrc+DD>
1010606a:	69 6f 6e 3d 27 31 2e 	imull	$774973245, 110(%edi), %ebp
10106071:	30 27 	xorb	%ah, (%edi)
10106073:	20 65 6e 	andb	%ah, 110(%ebp)
10106076:	63 6f 64 	arpl	%bp, 100(%edi)
10106079:	69 6e 67 3d 27 55 54 	imull	$1414866749, 103(%esi), %ebp
10106080:	46 	incl	%esi
10106081:	2d 38 27 20 73 	subl	$1931487032, %eax
10106086:	74 61 	je	97 <.rsrc+E9>
10106088:	6e 	outsb	(%esi), %dx
10106089:	64 61 	popal
1010608b:	6c 	insb	%dx, %es:(%edi)
1010608c:	6f 	outsl	(%esi), %dx
1010608d:	6e 	outsb	(%esi), %dx
1010608e:	65 3d 27 79 65 73 	cmpl	$1936029991, %eax
10106094:	27 	daa
10106095:	3f 	aas
10106096:	3e 0d 0a 3c 61 73 	orl	$1935752202, %eax
1010609c:	73 65 	jae	101 <.rsrc+103>
1010609e:	6d 	insl	%dx, %es:(%edi)
1010609f:	62 6c 79 20 	bound	32(%ecx,%edi,2), %ebp
101060a3:	78 6d 	js	109 <.rsrc+112>
101060a5:	6c 	insb	%dx, %es:(%edi)
101060a6:	6e 	outsb	(%esi), %dx
101060a7:	73 3d 	jae	61 <.rsrc+E6>
101060a9:	27 	daa
101060aa:	75 72 	jne	114 <.rsrc+11E>
101060ac:	6e 	outsb	(%esi), %dx
101060ad:	3a 73 63 	cmpb	99(%ebx), %dh
101060b0:	68 65 6d 61 73 	pushl	$1935764837
101060b5:	2d 6d 69 63 72 	subl	$1919117677, %eax
101060ba:	6f 	outsl	(%esi), %dx
101060bb:	73 6f 	jae	111 <.rsrc+12C>
101060bd:	66 74 2d 	je	45 <.rsrc+ED>
101060c0:	63 6f 6d 	arpl	%bp, 109(%edi)
101060c3:	3a 61 73 	cmpb	115(%ecx), %ah
101060c6:	6d 	insl	%dx, %es:(%edi)
101060c7:	2e 76 31 	jbe	49 <.rsrc+FB>
101060ca:	27 	daa
101060cb:	20 6d 61 	andb	%ch, 97(%ebp)
101060ce:	6e 	outsb	(%esi), %dx
101060cf:	69 66 65 73 74 56 65 	imull	$1700164723, 101(%esi), %esp
101060d6:	72 73 	jb	115 <.rsrc+14B>
101060d8:	69 6f 6e 3d 27 31 2e 	imull	$774973245, 110(%edi), %ebp
101060df:	30 27 	xorb	%ah, (%edi)
101060e1:	3e 0d 0a 20 20 3c 	orl	$1008738314, %eax
101060e7:	74 72 	je	114 <.rsrc+15B>
101060e9:	75 73 	jne	115 <.rsrc+15E>
101060eb:	74 49 	je	73 <.rsrc+136>
101060ed:	6e 	outsb	(%esi), %dx
101060ee:	66 6f 	outsw	(%esi), %dx
101060f0:	20 78 6d 	andb	%bh, 109(%eax)
101060f3:	6c 	insb	%dx, %es:(%edi)
101060f4:	6e 	outsb	(%esi), %dx
101060f5:	73 3d 	jae	61 <.rsrc+134>
101060f7:	22 75 72 	andb	114(%ebp), %dh
101060fa:	6e 	outsb	(%esi), %dx
101060fb:	3a 73 63 	cmpb	99(%ebx), %dh
101060fe:	68 65 6d 61 73 	pushl	$1935764837
10106103:	2d 6d 69 63 72 	subl	$1919117677, %eax
10106108:	6f 	outsl	(%esi), %dx
10106109:	73 6f 	jae	111 <.rsrc+17A>
1010610b:	66 74 2d 	je	45 <.rsrc+13B>
1010610e:	63 6f 6d 	arpl	%bp, 109(%edi)
10106111:	3a 61 73 	cmpb	115(%ecx), %ah
10106114:	6d 	insl	%dx, %es:(%edi)
10106115:	2e 76 33 	jbe	51 <.rsrc+14B>
10106118:	22 3e 	andb	(%esi), %bh
1010611a:	0d 0a 20 20 20 	orl	$538976266, %eax
1010611f:	20 3c 73 	andb	%bh, (%ebx,%esi,2)
10106122:	65 63 75 72 	arpl	%si, %gs:114(%ebp)
10106126:	69 74 79 3e 0d 0a 20 20 	imull	$538970637, 62(%ecx,%edi,2), %esi
1010612e:	20 20 	andb	%ah, (%eax)
10106130:	20 20 	andb	%ah, (%eax)
10106132:	3c 72 	cmpb	$114, %al
10106134:	65 71 75 	jno	117 <.rsrc+1AC>
10106137:	65 73 74 	jae	116 <.rsrc+1AE>
1010613a:	65 64 50 	pushl	%eax
1010613d:	72 69 	jb	105 <.rsrc+1A8>
1010613f:	76 69 	jbe	105 <.rsrc+1AA>
10106141:	6c 	insb	%dx, %es:(%edi)
10106142:	65 67 65 73 3e 	jae	62 <.rsrc+185>
10106147:	0d 0a 20 20 20 	orl	$538976266, %eax
1010614c:	20 20 	andb	%ah, (%eax)
1010614e:	20 20 	andb	%ah, (%eax)
10106150:	20 3c 72 	andb	%bh, (%edx,%esi,2)
10106153:	65 71 75 	jno	117 <.rsrc+1CB>
10106156:	65 73 74 	jae	116 <.rsrc+1CD>
10106159:	65 64 45 	incl	%ebp
1010615c:	78 65 	js	101 <.rsrc+1C3>
1010615e:	63 75 74 	arpl	%si, 116(%ebp)
10106161:	69 6f 6e 4c 65 76 65 	imull	$1702257996, 110(%edi), %ebp
10106168:	6c 	insb	%dx, %es:(%edi)
10106169:	20 6c 65 76 	andb	%ch, 118(%ebp)
1010616d:	65 6c 	insb	%dx, %es:(%edi)
1010616f:	3d 27 61 73 49 	cmpl	$1232298279, %eax
10106174:	6e 	outsb	(%esi), %dx
10106175:	76 6f 	jbe	111 <.rsrc+1E6>
10106177:	6b 65 72 27 	imull	$39, 114(%ebp), %esp
1010617b:	20 75 69 	andb	%dh, 105(%ebp)
1010617e:	41 	incl	%ecx
1010617f:	63 63 65 	arpl	%sp, 101(%ebx)
10106182:	73 73 	jae	115 <.rsrc+1F7>
10106184:	3d 27 66 61 6c 	cmpl	$1818322471, %eax
10106189:	73 65 	jae	101 <.rsrc+1F0>
1010618b:	27 	daa
1010618c:	20 2f 	andb	%ch, (%edi)
1010618e:	3e 0d 0a 20 20 20 	orl	$538976266, %eax
10106194:	20 20 	andb	%ah, (%eax)
10106196:	20 3c 2f 	andb	%bh, (%edi,%ebp)
10106199:	72 65 	jb	101 <.rsrc+200>
1010619b:	71 75 	jno	117 <.rsrc+212>
1010619d:	65 73 74 	jae	116 <.rsrc+214>
101061a0:	65 64 50 	pushl	%eax
101061a3:	72 69 	jb	105 <.rsrc+20E>
101061a5:	76 69 	jbe	105 <.rsrc+210>
101061a7:	6c 	insb	%dx, %es:(%edi)
101061a8:	65 67 65 73 3e 	jae	62 <.rsrc+1EB>
101061ad:	0d 0a 20 20 20 	orl	$538976266, %eax
101061b2:	20 3c 2f 	andb	%bh, (%edi,%ebp)
101061b5:	73 65 	jae	101 <.rsrc+21C>
101061b7:	63 75 72 	arpl	%si, 114(%ebp)
101061ba:	69 74 79 3e 0d 0a 20 20 	imull	$538970637, 62(%ecx,%edi,2), %esi
101061c2:	3c 2f 	cmpb	$47, %al
101061c4:	74 72 	je	114 <.rsrc+238>
101061c6:	75 73 	jne	115 <.rsrc+23B>
101061c8:	74 49 	je	73 <.rsrc+213>
101061ca:	6e 	outsb	(%esi), %dx
101061cb:	66 6f 	outsw	(%esi), %dx
101061cd:	3e 0d 0a 3c 2f 61 	orl	$1630485514, %eax
101061d3:	73 73 	jae	115 <.rsrc+248>
101061d5:	65 6d 	insl	%dx, %es:(%edi)
101061d7:	62 6c 79 3e 	bound	62(%ecx,%edi,2), %ebp
101061db:	0d 0a 00 00 00 	orl	$10, %eax
